EXPORTS
 "_BayesCPs_ClusteringCPsEPI"
 "_BayesCPs_ClusteringCPsMultivariateTS"
 "_BayesCPs_ClusteringCPsUnivariateTS"
 "_BayesCPs_detect_cp_multivariate"
 "_BayesCPs_detect_cp_univariate"
 "_BayesCPs_get_order_VI"
 "_BayesCPs_psm"
 "_BayesCPs_SimEpiData"
 "_Z13get_last_callv"
 "_Z14make_conditionRKNSt7__cxx1112basic_stringIcSt11char_traitsIcESaIcEEEP7SEXPRECS8_S8_"
 "_Z19string_to_try_errorRKNSt7__cxx1112basic_stringIcSt11char_traitsIcESaIcEEE"
 "_Z20rcpp_get_stack_tracev"
 "_Z20rcpp_set_stack_traceP7SEXPREC"
 "_Z21get_exception_classesRKNSt7__cxx1112basic_stringIcSt11char_traitsIcESaIcEEE"
 "_Z24exception_to_r_conditionRKSt9exception"
 "_Z29rcpp_exception_to_r_conditionRKN4Rcpp9exceptionE"
 "_Z31exception_to_condition_templateIN4Rcpp9exceptionEEP7SEXPRECRKT_b"
 "_Z31exception_to_condition_templateISt9exceptionEP7SEXPRECRKT_b"
 "_Z7dataptrP7SEXPREC"
 "_Z8demangleRKNSt7__cxx1112basic_stringIcSt11char_traitsIcESaIcEEE"
 "_ZGVN4arma5DatumIdE3nanE"
 "_ZGVZ20rcpp_get_stack_tracevE3fun"
 "_ZGVZ20rcpp_set_stack_traceP7SEXPRECE3fun"
 "_ZGVZ7dataptrP7SEXPRECE3fun"
 "_ZGVZ8demangleRKNSt7__cxx1112basic_stringIcSt11char_traitsIcESaIcEEEE3funB5cxx11"
 "_ZGVZN4Rcpp20Rcpp_precious_removeEP7SEXPRECE3fun"
 "_ZGVZN4Rcpp22Rcpp_precious_preserveEP7SEXPRECE3fun"
 "_ZGVZN4Rcpp8internal12exitRNGScopeEvE3fun"
 "_ZGVZN4Rcpp8internal13enterRNGScopeEvE3fun"
 "_ZN10tinyformat10FormatListC2EPNS_6detail9FormatArgEi"
 "_ZN10tinyformat11formatValueIiEEvRSoPKcS3_iRKT_"
 "_ZN10tinyformat14makeFormatListIJiEEENS_6detail11FormatListNIXsZT_EEEDpRKT_"
 "_ZN10tinyformat6detail10formatImplERSoPKcPKNS0_9FormatArgEi"
 "_ZN10tinyformat6detail11FormatListNILi1EEC1IJiEEEDpRKT_"
 "_ZN10tinyformat6detail12convertToIntIiLb1EE6invokeERKi"
 "_ZN10tinyformat6detail15formatTruncatedIiEEvRSoRKT_i"
 "_ZN10tinyformat6detail17formatValueAsTypeIicLb1EE6invokeERSoRKi"
 "_ZN10tinyformat6detail18parseIntAndAdvanceERPKc"
 "_ZN10tinyformat6detail21streamStateFromFormatERSoRbRiPKcPKNS0_9FormatArgES3_i"
 "_ZN10tinyformat6detail24printFormatStringLiteralERSoPKc"
 "_ZN10tinyformat6detail9FormatArg10formatImplIiEEvRSoPKcS5_iPKv"
 "_ZN10tinyformat6detail9FormatArg9toIntImplIiEEiPKv"
 "_ZN10tinyformat6detail9FormatArgC1IiEERKT_"
 "_ZN10tinyformat6formatIJiEEENSt7__cxx1112basic_stringIcSt11char_traitsIcESaIcEEEPKcDpRKT_"
 "_ZN10tinyformat6formatIJiEEEvRSoPKcDpRKT_"
 "_ZN10tinyformat7vformatERSoPKcRKNS_10FormatListE"
 "_ZN4arma10arma_checkIA53_cEEvbRKT_"
 "_ZN4arma10arma_checkIPKcEEvbRKT_"
 "_ZN4arma15get_cerr_streamEv"
 "_ZN4arma20arma_check_bad_allocIA34_cEEvbRKT_"
 "_ZN4arma20arma_check_bad_allocIA39_cEEvbRKT_"
 "_ZN4arma3ColIdEC1Ej"
 "_ZN4arma3ColIdED1Ev"
 "_ZN4arma3MatIdE9init_coldEv"
 "_ZN4arma3MatIdEC1Ejj"
 "_ZN4arma3MatIdEC2ERKNS_18arma_vec_indicatorEjjt"
 "_ZN4arma3MatIdED1Ev"
 "_ZN4arma3MatIdED2Ev"
 "_ZN4arma4CubeIdE10create_matEv"
 "_ZN4arma4CubeIdE10delete_matEv"
 "_ZN4arma4CubeIdE9init_coldEv"
 "_ZN4arma4CubeIdEC1EPdjjjbbb"
 "_ZN4arma4CubeIdED1Ev"
 "_ZN4arma4priv12Datum_helper3nanIdEENS_14arma_real_onlyIT_E6resultEPS6_"
 "_ZN4arma5DatumIdE3nanE"
 "_ZN4arma6access2rwIdEERT_RKS2_"
 "_ZN4arma6access2rwIjEERT_RKS2_"
 "_ZN4arma6access2rwIPKdEERT_RKS4_"
 "_ZN4arma6memory7acquireIdEEPT_j"
 "_ZN4arma8arma_str11char_buffer8set_sizeEj"
 "_ZN4arma8arma_str11char_bufferC1Ev"
 "_ZN4arma8arma_str11char_bufferD1Ev"
 "_ZN4arma8arma_str3strIjEENSt7__cxx1112basic_stringIcSt11char_traitsIcESaIcEEERKNS0_12basic_formatINS0_6formatET_EE"
 "_ZN4arma8arma_strlsINS0_6formatEjEERSoS3_RKNS0_12basic_formatIT_T0_EE"
 "_ZN4arma8arrayops10fill_zerosIdEEvPT_j"
 "_ZN4Rcpp10RstreambufILb0EE4syncEv"
 "_ZN4Rcpp10RstreambufILb0EE6xsputnEPKcx"
 "_ZN4Rcpp10RstreambufILb0EE8overflowEi"
 "_ZN4Rcpp10RstreambufILb0EEC1Ev"
 "_ZN4Rcpp10RstreambufILb0EED0Ev"
 "_ZN4Rcpp10RstreambufILb0EED1Ev"
 "_ZN4Rcpp10RstreambufILb1EE4syncEv"
 "_ZN4Rcpp10RstreambufILb1EE6xsputnEPKcx"
 "_ZN4Rcpp10RstreambufILb1EE8overflowEi"
 "_ZN4Rcpp10RstreambufILb1EEC1Ev"
 "_ZN4Rcpp10RstreambufILb1EED0Ev"
 "_ZN4Rcpp10RstreambufILb1EED1Ev"
 "_ZN4Rcpp12not_a_matrixC1Ev"
 "_ZN4Rcpp12not_a_matrixD0Ev"
 "_ZN4Rcpp12not_a_matrixD1Ev"
 "_ZN4Rcpp12Rcpp_protectEP7SEXPREC"
 "_ZN4Rcpp12RObject_ImplINS_15PreserveStorageEE6updateEP7SEXPREC"
 "_ZN4Rcpp12RObject_ImplINS_15PreserveStorageEEaSIP7SEXPRECEERS2_RKT_"
 "_ZN4Rcpp12RObject_ImplINS_15PreserveStorageEEC1EP7SEXPREC"
 "_ZN4Rcpp12RObject_ImplINS_15PreserveStorageEEC1Ev"
 "_ZN4Rcpp12RObject_ImplINS_15PreserveStorageEED1Ev"
 "_ZN4Rcpp13RcppArmadillo9arma_wrapIN4arma3ColIdEEEEP7SEXPRECRKT_RKNS_9DimensionE"
 "_ZN4Rcpp13RcppArmadillo9arma_wrapIN4arma3MatIdEEEEP7SEXPRECRKT_RKNS_9DimensionE"
 "_ZN4Rcpp13unwindProtectEPFP7SEXPRECPvES2_"
 "_ZN4Rcpp14InputParameterIbEC1EP7SEXPREC"
 "_ZN4Rcpp14InputParameterIbEcvbEv"
 "_ZN4Rcpp14InputParameterIdEC1EP7SEXPREC"
 "_ZN4Rcpp14InputParameterIdEcvdEv"
 "_ZN4Rcpp14InputParameterIiEC1EP7SEXPREC"
 "_ZN4Rcpp14InputParameterIiEcviEv"
 "_ZN4Rcpp14InputParameterImEC1EP7SEXPREC"
 "_ZN4Rcpp14InputParameterImEcvmEv"
 "_ZN4Rcpp14InputParameterIN4arma3ColIdEEEC1EP7SEXPREC"
 "_ZN4Rcpp14InputParameterIN4arma3ColIdEEEcvS3_Ev"
 "_ZN4Rcpp14InputParameterIN4arma3MatIdEEEC1EP7SEXPREC"
 "_ZN4Rcpp14InputParameterIN4arma3MatIdEEEcvS3_Ev"
 "_ZN4Rcpp14InputParameterIN4arma4CubeIdEEEC1EP7SEXPREC"
 "_ZN4Rcpp14InputParameterIN4arma4CubeIdEEEcvS3_Ev"
 "_ZN4Rcpp14not_compatibleC1IJiEEEPKcDpOT_"
 "_ZN4Rcpp14not_compatibleD0Ev"
 "_ZN4Rcpp14not_compatibleD1Ev"
 "_ZN4Rcpp14Rcpp_fast_evalEP7SEXPRECS1_"
 "_ZN4Rcpp14Rcpp_unprotectEi"
 "_ZN4Rcpp15PreserveStorageINS_12RObject_ImplIS0_EEE5set__EP7SEXPREC"
 "_ZN4Rcpp15PreserveStorageINS_12RObject_ImplIS0_EEEC2Ev"
 "_ZN4Rcpp15PreserveStorageINS_12RObject_ImplIS0_EEED2Ev"
 "_ZN4Rcpp15PreserveStorageINS_6VectorILi13ES0_EEE5set__EP7SEXPREC"
 "_ZN4Rcpp15PreserveStorageINS_6VectorILi13ES0_EEE6copy__IS2_EERT_RKS5_"
 "_ZN4Rcpp15PreserveStorageINS_6VectorILi13ES0_EEEC2Ev"
 "_ZN4Rcpp15PreserveStorageINS_6VectorILi13ES0_EEED2Ev"
 "_ZN4Rcpp15PreserveStorageINS_6VectorILi14ES0_EEE5set__EP7SEXPREC"
 "_ZN4Rcpp15PreserveStorageINS_6VectorILi14ES0_EEEC2Ev"
 "_ZN4Rcpp15PreserveStorageINS_6VectorILi14ES0_EEED2Ev"
 "_ZN4Rcpp15PreserveStorageINS_6VectorILi16ES0_EEE5set__EP7SEXPREC"
 "_ZN4Rcpp15PreserveStorageINS_6VectorILi16ES0_EEEC2Ev"
 "_ZN4Rcpp15PreserveStorageINS_6VectorILi16ES0_EEED2Ev"
 "_ZN4Rcpp15PreserveStorageINS_6VectorILi19ES0_EEE5set__EP7SEXPREC"
 "_ZN4Rcpp15PreserveStorageINS_6VectorILi19ES0_EEEC2Ev"
 "_ZN4Rcpp15PreserveStorageINS_6VectorILi19ES0_EEED2Ev"
 "_ZN4Rcpp16wrap_extra_stepsIdEEP7SEXPRECS2_"
 "_ZN4Rcpp16wrap_extra_stepsIiEEP7SEXPRECS2_"
 "_ZN4Rcpp17LongjumpExceptionC1EP7SEXPREC"
 "_ZN4Rcpp20AttributeProxyPolicyINS_12RObject_ImplINS_15PreserveStorageEEEE14AttributeProxy3setEP7SEXPREC"
 "_ZN4Rcpp20AttributeProxyPolicyINS_12RObject_ImplINS_15PreserveStorageEEEE14AttributeProxyaSINS_9DimensionEEERS5_RKT_"
 "_ZN4Rcpp20AttributeProxyPolicyINS_12RObject_ImplINS_15PreserveStorageEEEE14AttributeProxyC1ERS3_RKNSt7__cxx1112basic_stringIcSt11char_traitsIcESaIcEEE"
 "_ZN4Rcpp20AttributeProxyPolicyINS_12RObject_ImplINS_15PreserveStorageEEEE4attrERKNSt7__cxx1112basic_stringIcSt11char_traitsIcESaIcEEE"
 "_ZN4Rcpp20AttributeProxyPolicyINS_6VectorILi14ENS_15PreserveStorageEEEE14AttributeProxyC1ERS3_RKNSt7__cxx1112basic_stringIcSt11char_traitsIcESaIcEEE"
 "_ZN4Rcpp20AttributeProxyPolicyINS_6VectorILi14ENS_15PreserveStorageEEEE4attrERKNSt7__cxx1112basic_stringIcSt11char_traitsIcESaIcEEE"
 "_ZN4Rcpp20AttributeProxyPolicyINS_6VectorILi19ENS_15PreserveStorageEEEE14AttributeProxy3setEP7SEXPREC"
 "_ZN4Rcpp20AttributeProxyPolicyINS_6VectorILi19ENS_15PreserveStorageEEEE14AttributeProxyaSIA17_cEERS5_RKT_"
 "_ZN4Rcpp20AttributeProxyPolicyINS_6VectorILi19ENS_15PreserveStorageEEEE14AttributeProxyaSINS_6ShieldIP7SEXPRECEEEERS5_RKT_"
 "_ZN4Rcpp20AttributeProxyPolicyINS_6VectorILi19ENS_15PreserveStorageEEEE14AttributeProxyC1ERS3_RKNSt7__cxx1112basic_stringIcSt11char_traitsIcESaIcEEE"
 "_ZN4Rcpp20AttributeProxyPolicyINS_6VectorILi19ENS_15PreserveStorageEEEE4attrERKNSt7__cxx1112basic_stringIcSt11char_traitsIcESaIcEEE"
 "_ZN4Rcpp20Rcpp_precious_removeEP7SEXPREC"
 "_ZN4Rcpp20Rcpp_PreciousReleaseEP7SEXPREC"
 "_ZN4Rcpp21Rcpp_PreciousPreserveEP7SEXPREC"
 "_ZN4Rcpp22Rcpp_precious_preserveEP7SEXPREC"
 "_ZN4Rcpp2asIbEET_P7SEXPREC"
 "_ZN4Rcpp2asIdEET_P7SEXPREC"
 "_ZN4Rcpp2asIiEET_P7SEXPREC"
 "_ZN4Rcpp2asImEET_P7SEXPREC"
 "_ZN4Rcpp2asIN4arma3ColIdEEEET_P7SEXPREC"
 "_ZN4Rcpp2asIN4arma3MatIdEEEET_P7SEXPREC"
 "_ZN4Rcpp2asIN4arma4CubeIdEEEET_P7SEXPREC"
 "_ZN4Rcpp2asINS_6VectorILi13ENS_15PreserveStorageEEEEET_P7SEXPREC"
 "_ZN4Rcpp4stopERKNSt7__cxx1112basic_stringIcSt11char_traitsIcESaIcEEE"
 "_ZN4Rcpp4wrapEPKc"
 "_ZN4Rcpp4wrapIdEEP7SEXPRECRKN4arma3ColIT_EE"
 "_ZN4Rcpp4wrapIdEEP7SEXPRECRKN4arma3MatIT_EE"
 "_ZN4Rcpp4wrapIiEEP7SEXPRECRKT_"
 "_ZN4Rcpp4wrapIN9__gnu_cxx17__normal_iteratorIPKiSt6vectorIiSaIiEEEEEEP7SEXPRECT_SB_"
 "_ZN4Rcpp4wrapINS_6ShieldIP7SEXPRECEEEES3_RKT_"
 "_ZN4Rcpp4wrapINS_6VectorILi16ENS_15PreserveStorageEEEEEP7SEXPRECRKT_"
 "_ZN4Rcpp4wrapINS_6VectorILi19ENS_15PreserveStorageEEEEEP7SEXPRECRKT_"
 "_ZN4Rcpp4wrapINS_9DimensionEEEP7SEXPRECRKT_"
 "_ZN4Rcpp4wrapIP7SEXPRECEES2_RKT_"
 "_ZN4Rcpp4wrapIPKdEEP7SEXPRECT_S5_"
 "_ZN4Rcpp6r_castILi10EEEP7SEXPRECS2_"
 "_ZN4Rcpp6r_castILi13EEEP7SEXPRECS2_"
 "_ZN4Rcpp6r_castILi14EEEP7SEXPRECS2_"
 "_ZN4Rcpp6ShieldIP7SEXPRECEC1ES2_"
 "_ZN4Rcpp6ShieldIP7SEXPRECED1Ev"
 "_ZN4Rcpp6traits11proxy_cacheILi16ENS_15PreserveStorageEE6updateERKNS_6VectorILi16ES2_EE"
 "_ZN4Rcpp6traits11proxy_cacheILi16ENS_15PreserveStorageEEC1Ev"
 "_ZN4Rcpp6traits11proxy_cacheILi16ENS_15PreserveStorageEED1Ev"
 "_ZN4Rcpp6traits11proxy_cacheILi19ENS_15PreserveStorageEE6updateERKNS_6VectorILi19ES2_EE"
 "_ZN4Rcpp6traits11proxy_cacheILi19ENS_15PreserveStorageEEC1Ev"
 "_ZN4Rcpp6traits11proxy_cacheILi19ENS_15PreserveStorageEED1Ev"
 "_ZN4Rcpp6traits12named_objectIA1_cEC1ERKNSt7__cxx1112basic_stringIcSt11char_traitsIcESaIcEEERA1_Kc"
 "_ZN4Rcpp6traits12named_objectIiEC1ERKNSt7__cxx1112basic_stringIcSt11char_traitsIcESaIcEEERKi"
 "_ZN4Rcpp6traits12named_objectINS_6VectorILi16ENS_15PreserveStorageEEEEC1ERKNSt7__cxx1112basic_stringIcSt11char_traitsIcESaIcEEERKS4_"
 "_ZN4Rcpp6traits14MatrixExporterIN4arma3MatIdEEdE3getEv"
 "_ZN4Rcpp6traits14MatrixExporterIN4arma3MatIdEEdEC2EP7SEXPREC"
 "_ZN4Rcpp6traits14MatrixExporterIN4arma3MatIdEEdED2Ev"
 "_ZN4Rcpp6traits14r_vector_cacheILi13ENS_15PreserveStorageEE3refEx"
 "_ZN4Rcpp6traits14r_vector_cacheILi13ENS_15PreserveStorageEE6updateERKNS_6VectorILi13ES2_EE"
 "_ZN4Rcpp6traits14r_vector_cacheILi13ENS_15PreserveStorageEEC1Ev"
 "_ZN4Rcpp6traits14r_vector_cacheILi14ENS_15PreserveStorageEE6updateERKNS_6VectorILi14ES2_EE"
 "_ZN4Rcpp6traits14r_vector_cacheILi14ENS_15PreserveStorageEEC1Ev"
 "_ZN4Rcpp6traits16IndexingExporterIN4arma3ColIdEEdE3getEv"
 "_ZN4Rcpp6traits16IndexingExporterIN4arma3ColIdEEdEC2EP7SEXPREC"
 "_ZN4Rcpp6traits16IndexingExporterIN4arma3ColIdEEdED2Ev"
 "_ZN4Rcpp6traits8ExporterIN4arma3ColIdEEEC1EP7SEXPREC"
 "_ZN4Rcpp6traits8ExporterIN4arma3ColIdEEED1Ev"
 "_ZN4Rcpp6traits8ExporterIN4arma3MatIdEEEC1EP7SEXPREC"
 "_ZN4Rcpp6traits8ExporterIN4arma3MatIdEEED1Ev"
 "_ZN4Rcpp6traits8ExporterIN4arma4CubeIdEEE3getEv"
 "_ZN4Rcpp6traits8ExporterIN4arma4CubeIdEEEC1EP7SEXPREC"
 "_ZN4Rcpp6traits8ExporterIN4arma4CubeIdEEED1Ev"
 "_ZN4Rcpp6traits8ExporterINS_6VectorILi13ENS_15PreserveStorageEEEE3getEv"
 "_ZN4Rcpp6traits8ExporterINS_6VectorILi13ENS_15PreserveStorageEEEEC1EP7SEXPREC"
 "_ZN4Rcpp6traits8ExporterINS_6VectorILi13ENS_15PreserveStorageEEEED1Ev"
 "_ZN4Rcpp6VectorILi13ENS_15PreserveStorageEE6updateEP7SEXPREC"
 "_ZN4Rcpp6VectorILi13ENS_15PreserveStorageEEC1EP7SEXPREC"
 "_ZN4Rcpp6VectorILi13ENS_15PreserveStorageEEC1ERKS2_"
 "_ZN4Rcpp6VectorILi13ENS_15PreserveStorageEED1Ev"
 "_ZN4Rcpp6VectorILi13ENS_15PreserveStorageEEixEx"
 "_ZN4Rcpp6VectorILi14ENS_15PreserveStorageEE5beginEv"
 "_ZN4Rcpp6VectorILi14ENS_15PreserveStorageEE6updateEP7SEXPREC"
 "_ZN4Rcpp6VectorILi14ENS_15PreserveStorageEEC1EP7SEXPREC"
 "_ZN4Rcpp6VectorILi14ENS_15PreserveStorageEED1Ev"
 "_ZN4Rcpp6VectorILi16ENS_15PreserveStorageEE4initEv"
 "_ZN4Rcpp6VectorILi16ENS_15PreserveStorageEE5beginEv"
 "_ZN4Rcpp6VectorILi16ENS_15PreserveStorageEE6updateEP7SEXPREC"
 "_ZN4Rcpp6VectorILi16ENS_15PreserveStorageEEC1IyEET_PNS_6traits9enable_ifIXsrNS5_13is_arithmeticIS4_EE5valueEvE4typeE"
 "_ZN4Rcpp6VectorILi16ENS_15PreserveStorageEED1Ev"
 "_ZN4Rcpp6VectorILi19ENS_15PreserveStorageEE15replace_elementINS_6traits12named_objectIA1_cEEEEvNS_8internal14Proxy_IteratorINS8_13generic_proxyILi19ES1_EEEEP7SEXPRECxRKT_"
 "_ZN4Rcpp6VectorILi19ENS_15PreserveStorageEE15replace_elementINS_6traits12named_objectIiEEEEvNS_8internal14Proxy_IteratorINS7_13generic_proxyILi19ES1_EEEEP7SEXPRECxRKT_"
 "_ZN4Rcpp6VectorILi19ENS_15PreserveStorageEE15replace_elementINS_6traits12named_objectINS0_ILi16ES1_EEEEEEvNS_8internal14Proxy_IteratorINS8_13generic_proxyILi19ES1_EEEEP7SEXPRECxRKT_"
 "_ZN4Rcpp6VectorILi19ENS_15PreserveStorageEE16create__dispatchINS_6traits12named_objectIA1_cEENS5_IiEENS5_INS0_ILi16ES1_EEEEEES2_NS4_17integral_constantIbLb1EEERKT_RKT0_RKT1_"
 "_ZN4Rcpp6VectorILi19ENS_15PreserveStorageEE25replace_element__dispatchINS_6traits12named_objectIA1_cEEEEvNS4_17integral_constantIbLb1EEENS_8internal14Proxy_IteratorINSA_13generic_proxyILi19ES1_EEEEP7SEXPRECxRKT_"
 "_ZN4Rcpp6VectorILi19ENS_15PreserveStorageEE25replace_element__dispatchINS_6traits12named_objectIiEEEEvNS4_17integral_constantIbLb1EEENS_8internal14Proxy_IteratorINS9_13generic_proxyILi19ES1_EEEEP7SEXPRECxRKT_"
 "_ZN4Rcpp6VectorILi19ENS_15PreserveStorageEE25replace_element__dispatchINS_6traits12named_objectINS0_ILi16ES1_EEEEEEvNS4_17integral_constantIbLb1EEENS_8internal14Proxy_IteratorINSA_13generic_proxyILi19ES1_EEEEP7SEXPRECxRKT_"
 "_ZN4Rcpp6VectorILi19ENS_15PreserveStorageEE37replace_element__dispatch__isArgumentINS_6traits12named_objectIA1_cEEEEvNS4_17integral_constantIbLb0EEENS_8internal14Proxy_IteratorINSA_13generic_proxyILi19ES1_EEEEP7SEXPRECxRKT_"
 "_ZN4Rcpp6VectorILi19ENS_15PreserveStorageEE37replace_element__dispatch__isArgumentINS_6traits12named_objectIiEEEEvNS4_17integral_constantIbLb0EEENS_8internal14Proxy_IteratorINS9_13generic_proxyILi19ES1_EEEEP7SEXPRECxRKT_"
 "_ZN4Rcpp6VectorILi19ENS_15PreserveStorageEE37replace_element__dispatch__isArgumentINS_6traits12named_objectINS0_ILi16ES1_EEEEEEvNS4_17integral_constantIbLb0EEENS_8internal14Proxy_IteratorINSA_13generic_proxyILi19ES1_EEEEP7SEXPRECxRKT_"
 "_ZN4Rcpp6VectorILi19ENS_15PreserveStorageEE4initEv"
 "_ZN4Rcpp6VectorILi19ENS_15PreserveStorageEE5beginEv"
 "_ZN4Rcpp6VectorILi19ENS_15PreserveStorageEE6createINS_6traits12named_objectIA1_cEENS5_IiEENS5_INS0_ILi16ES1_EEEEEES2_RKT_RKT0_RKT1_"
 "_ZN4Rcpp6VectorILi19ENS_15PreserveStorageEE6updateEP7SEXPREC"
 "_ZN4Rcpp6VectorILi19ENS_15PreserveStorageEEC1ERKi"
 "_ZN4Rcpp6VectorILi19ENS_15PreserveStorageEED1Ev"
 "_ZN4Rcpp7ShelterIP7SEXPRECEC1Ev"
 "_ZN4Rcpp7ShelterIP7SEXPRECEclES2_"
 "_ZN4Rcpp7ShelterIP7SEXPRECED1Ev"
 "_ZN4Rcpp8ArgumentaSIA1_cEENS_6traits12named_objectIT_EERKS5_"
 "_ZN4Rcpp8ArgumentaSIiEENS_6traits12named_objectIT_EERKS4_"
 "_ZN4Rcpp8ArgumentaSINS_6VectorILi16ENS_15PreserveStorageEEEEENS_6traits12named_objectIT_EERKS7_"
 "_ZN4Rcpp8ArgumentC1ERKNSt7__cxx1112basic_stringIcSt11char_traitsIcESaIcEEE"
 "_ZN4Rcpp8ArgumentD1Ev"
 "_ZN4Rcpp8internal10basic_castILi10EEEP7SEXPRECS3_"
 "_ZN4Rcpp8internal10basic_castILi13EEEP7SEXPRECS3_"
 "_ZN4Rcpp8internal10basic_castILi14EEEP7SEXPRECS3_"
 "_ZN4Rcpp8internal10range_wrapIN9__gnu_cxx17__normal_iteratorIPKiSt6vectorIiSaIiEEEEEEP7SEXPRECT_SC_"
 "_ZN4Rcpp8internal10range_wrapIPKdEEP7SEXPRECT_S6_"
 "_ZN4Rcpp8internal10resumeJumpEP7SEXPREC"
 "_ZN4Rcpp8internal11r_true_castILi10EEEP7SEXPRECS3_"
 "_ZN4Rcpp8internal11r_true_castILi13EEEP7SEXPRECS3_"
 "_ZN4Rcpp8internal11r_true_castILi14EEEP7SEXPRECS3_"
 "_ZN4Rcpp8internal12exitRNGScopeEv"
 "_ZN4Rcpp8internal12primitive_asIbEET_P7SEXPREC"
 "_ZN4Rcpp8internal12primitive_asIdEET_P7SEXPREC"
 "_ZN4Rcpp8internal12primitive_asIiEET_P7SEXPREC"
 "_ZN4Rcpp8internal12primitive_asImEET_P7SEXPREC"
 "_ZN4Rcpp8internal12string_proxyILi16ENS_15PreserveStorageEE3setEP7SEXPREC"
 "_ZN4Rcpp8internal12string_proxyILi16ENS_15PreserveStorageEE3setINSt7__cxx1112basic_stringIcSt11char_traitsIcESaIcEEEEEvRKT_"
 "_ZN4Rcpp8internal12string_proxyILi16ENS_15PreserveStorageEE4moveEx"
 "_ZN4Rcpp8internal12string_proxyILi16ENS_15PreserveStorageEEaSIcEERS3_RKNSt7__cxx1112basic_stringIT_St11char_traitsIS8_ESaIS8_EEE"
 "_ZN4Rcpp8internal12string_proxyILi16ENS_15PreserveStorageEEC1ERKS3_"
 "_ZN4Rcpp8internal12string_proxyILi16ENS_15PreserveStorageEEC1ERNS_6VectorILi16ES2_EEx"
 "_ZN4Rcpp8internal13enterRNGScopeEv"
 "_ZN4Rcpp8internal13generic_proxyILi19ENS_15PreserveStorageEE3setEP7SEXPREC"
 "_ZN4Rcpp8internal13generic_proxyILi19ENS_15PreserveStorageEE4moveEx"
 "_ZN4Rcpp8internal13generic_proxyILi19ENS_15PreserveStorageEEaSEP7SEXPREC"
 "_ZN4Rcpp8internal13generic_proxyILi19ENS_15PreserveStorageEEC1ERKS3_"
 "_ZN4Rcpp8internal13generic_proxyILi19ENS_15PreserveStorageEEC1ERNS_6VectorILi19ES2_EEx"
 "_ZN4Rcpp8internal13make_charsexpINSt7__cxx1112basic_stringIcSt11char_traitsIcESaIcEEEEEP7SEXPRECRKT_"
 "_ZN4Rcpp8internal13r_init_vectorILi16EEEvP7SEXPREC"
 "_ZN4Rcpp8internal13r_init_vectorILi19EEEvP7SEXPREC"
 "_ZN4Rcpp8internal13wrap_dispatchIiEEP7SEXPRECRKT_NS_6traits23wrap_type_primitive_tagE"
 "_ZN4Rcpp8internal13wrap_dispatchINS_6ShieldIP7SEXPRECEEEES4_RKT_NS_6traits21wrap_type_unknown_tagE"
 "_ZN4Rcpp8internal13wrap_dispatchINS_6VectorILi16ENS_15PreserveStorageEEEEEP7SEXPRECRKT_NS_6traits21wrap_type_unknown_tagE"
 "_ZN4Rcpp8internal13wrap_dispatchINS_6VectorILi19ENS_15PreserveStorageEEEEEP7SEXPRECRKT_NS_6traits21wrap_type_unknown_tagE"
 "_ZN4Rcpp8internal13wrap_dispatchINS_9DimensionEEEP7SEXPRECRKT_NS_6traits21wrap_type_unknown_tagE"
 "_ZN4Rcpp8internal13wrap_dispatchIP7SEXPRECEES3_RKT_NS_6traits21wrap_type_unknown_tagE"
 "_ZN4Rcpp8internal14primitive_wrapIiEEP7SEXPRECRKT_"
 "_ZN4Rcpp8internal14Proxy_IteratorINS0_12string_proxyILi16ENS_15PreserveStorageEEEEC1ERKS4_"
 "_ZN4Rcpp8internal14Proxy_IteratorINS0_12string_proxyILi16ENS_15PreserveStorageEEEEC1ERKS5_"
 "_ZN4Rcpp8internal14Proxy_IteratorINS0_12string_proxyILi16ENS_15PreserveStorageEEEEdeEv"
 "_ZN4Rcpp8internal14Proxy_IteratorINS0_12string_proxyILi16ENS_15PreserveStorageEEEEppEv"
 "_ZN4Rcpp8internal14Proxy_IteratorINS0_13generic_proxyILi19ENS_15PreserveStorageEEEEC1ERKS4_"
 "_ZN4Rcpp8internal14Proxy_IteratorINS0_13generic_proxyILi19ENS_15PreserveStorageEEEEC1ERKS5_"
 "_ZN4Rcpp8internal14Proxy_IteratorINS0_13generic_proxyILi19ENS_15PreserveStorageEEEEdeEv"
 "_ZN4Rcpp8internal14Proxy_IteratorINS0_13generic_proxyILi19ENS_15PreserveStorageEEEEppEv"
 "_ZN4Rcpp8internal14r_vector_startILi10EEEPNS_6traits12storage_typeIXT_EE4typeEP7SEXPREC"
 "_ZN4Rcpp8internal14r_vector_startILi13EEEPNS_6traits12storage_typeIXT_EE4typeEP7SEXPREC"
 "_ZN4Rcpp8internal14r_vector_startILi14EEEPNS_6traits12storage_typeIXT_EE4typeEP7SEXPREC"
 "_ZN4Rcpp8internal15export_indexingIN4arma3ColIdEEdEEvP7SEXPRECRT_"
 "_ZN4Rcpp8internal15export_indexingIN4arma3MatIdEEdEEvP7SEXPRECRT_"
 "_ZN4Rcpp8internal16getLongjumpTokenEP7SEXPREC"
 "_ZN4Rcpp8internal16NamedPlaceHolderC1Ev"
 "_ZN4Rcpp8internal16NamedPlaceHolderD1Ev"
 "_ZN4Rcpp8internal17is_Rcpp_eval_callEP7SEXPREC"
 "_ZN4Rcpp8internal18isLongjumpSentinelEP7SEXPREC"
 "_ZN4Rcpp8internal19make_charsexp__implINSt7__cxx1112basic_stringIcSt11char_traitsIcESaIcEEEEEP7SEXPRECRKT_NS_6traits17integral_constantIbLb0EEE"
 "_ZN4Rcpp8internal19range_wrap_dispatchIN9__gnu_cxx17__normal_iteratorIPKiSt6vectorIiSaIiEEEEiEEP7SEXPRECT_SC_"
 "_ZN4Rcpp8internal19range_wrap_dispatchIPKddEEP7SEXPRECT_S6_"
 "_ZN4Rcpp8internal19Rcpp_protected_evalEPv"
 "_ZN4Rcpp8internal19wrap_dispatch_eigenINS_6ShieldIP7SEXPRECEEEES4_RKT_NS_6traits17integral_constantIbLb0EEE"
 "_ZN4Rcpp8internal19wrap_dispatch_eigenINS_6VectorILi16ENS_15PreserveStorageEEEEEP7SEXPRECRKT_NS_6traits17integral_constantIbLb0EEE"
 "_ZN4Rcpp8internal19wrap_dispatch_eigenINS_6VectorILi19ENS_15PreserveStorageEEEEEP7SEXPRECRKT_NS_6traits17integral_constantIbLb0EEE"
 "_ZN4Rcpp8internal19wrap_dispatch_eigenINS_9DimensionEEEP7SEXPRECRKT_NS_6traits17integral_constantIbLb0EEE"
 "_ZN4Rcpp8internal19wrap_dispatch_eigenIP7SEXPRECEES3_RKT_NS_6traits17integral_constantIbLb0EEE"
 "_ZN4Rcpp8internal20primitive_wrap__implIiEEP7SEXPRECRKT_NS_6traits20r_type_primitive_tagE"
 "_ZN4Rcpp8internal21export_indexing__implIN4arma3ColIdEEdEEvP7SEXPRECRT_NS_6traits17integral_constantIbLb0EEE"
 "_ZN4Rcpp8internal21export_indexing__implIN4arma3MatIdEEdEEvP7SEXPRECRT_NS_6traits17integral_constantIbLb0EEE"
 "_ZN4Rcpp8internal21wrap_dispatch_unknownINS_6ShieldIP7SEXPRECEEEES4_RKT_NS_6traits17integral_constantIbLb1EEE"
 "_ZN4Rcpp8internal21wrap_dispatch_unknownINS_6VectorILi16ENS_15PreserveStorageEEEEEP7SEXPRECRKT_NS_6traits17integral_constantIbLb1EEE"
 "_ZN4Rcpp8internal21wrap_dispatch_unknownINS_6VectorILi19ENS_15PreserveStorageEEEEEP7SEXPRECRKT_NS_6traits17integral_constantIbLb1EEE"
 "_ZN4Rcpp8internal21wrap_dispatch_unknownINS_9DimensionEEEP7SEXPRECRKT_NS_6traits17integral_constantIbLb1EEE"
 "_ZN4Rcpp8internal21wrap_dispatch_unknownIP7SEXPRECEES3_RKT_NS_6traits17integral_constantIbLb1EEE"
 "_ZN4Rcpp8internal25export_indexing__dispatchIN4arma3ColIdEEdEEvP7SEXPRECRT_NS_6traits20r_type_primitive_tagE"
 "_ZN4Rcpp8internal25export_indexing__dispatchIN4arma3MatIdEEdEEvP7SEXPRECRT_NS_6traits20r_type_primitive_tagE"
 "_ZN4Rcpp8internal25generic_element_converterILi19EE3getEPKc"
 "_ZN4Rcpp8internal25generic_element_converterILi19EE3getIiEEP7SEXPRECRKT_"
 "_ZN4Rcpp8internal25generic_element_converterILi19EE3getINS_6VectorILi16ENS_15PreserveStorageEEEEEP7SEXPRECRKT_"
 "_ZN4Rcpp8internal26primitive_range_wrap__implIN9__gnu_cxx17__normal_iteratorIPKiSt6vectorIiSaIiEEEEiEEP7SEXPRECT_SC_NS_6traits17integral_constantIbLb0EEE"
 "_ZN4Rcpp8internal26primitive_range_wrap__implIPKddEEP7SEXPRECT_S6_NS_6traits17integral_constantIbLb0EEE"
 "_ZN4Rcpp8internal26primitive_wrap__impl__castIiEEP7SEXPRECRKT_NS_6traits17integral_constantIbLb0EEE"
 "_ZN4Rcpp8internal26range_wrap_dispatch___implIN9__gnu_cxx17__normal_iteratorIPKiSt6vectorIiSaIiEEEEiEEP7SEXPRECT_SC_NS_6traits20r_type_primitive_tagE"
 "_ZN4Rcpp8internal26range_wrap_dispatch___implIPKddEEP7SEXPRECT_S6_NS_6traits20r_type_primitive_tagE"
 "_ZN4Rcpp8internal28make_charsexp__impl__cstringEPKc"
 "_ZN4Rcpp8internal28make_charsexp__impl__cstringERKNSt7__cxx1112basic_stringIcSt11char_traitsIcESaIcEEE"
 "_ZN4Rcpp8internal2asIbEET_P7SEXPRECNS_6traits20r_type_primitive_tagE"
 "_ZN4Rcpp8internal2asIdEET_P7SEXPRECNS_6traits20r_type_primitive_tagE"
 "_ZN4Rcpp8internal2asIiEET_P7SEXPRECNS_6traits20r_type_primitive_tagE"
 "_ZN4Rcpp8internal2asImEET_P7SEXPRECNS_6traits20r_type_primitive_tagE"
 "_ZN4Rcpp8internal2asIN4arma3ColIdEEEET_P7SEXPRECNS_6traits18r_type_generic_tagE"
 "_ZN4Rcpp8internal2asIN4arma3MatIdEEEET_P7SEXPRECNS_6traits18r_type_generic_tagE"
 "_ZN4Rcpp8internal2asIN4arma4CubeIdEEEET_P7SEXPRECNS_6traits18r_type_generic_tagE"
 "_ZN4Rcpp8internal2asINS_6VectorILi13ENS_15PreserveStorageEEEEET_P7SEXPRECNS_6traits18r_type_generic_tagE"
 "_ZN4Rcpp8internal32wrap_dispatch_unknown_importableINS_6ShieldIP7SEXPRECEEEES4_RKT_NS_6traits17integral_constantIbLb0EEE"
 "_ZN4Rcpp8internal32wrap_dispatch_unknown_importableINS_6VectorILi16ENS_15PreserveStorageEEEEEP7SEXPRECRKT_NS_6traits17integral_constantIbLb0EEE"
 "_ZN4Rcpp8internal32wrap_dispatch_unknown_importableINS_6VectorILi19ENS_15PreserveStorageEEEEEP7SEXPRECRKT_NS_6traits17integral_constantIbLb0EEE"
 "_ZN4Rcpp8internal32wrap_dispatch_unknown_importableINS_9DimensionEEEP7SEXPRECRKT_NS_6traits17integral_constantIbLb0EEE"
 "_ZN4Rcpp8internal32wrap_dispatch_unknown_importableIP7SEXPRECEES3_RKT_NS_6traits17integral_constantIbLb0EEE"
 "_ZN4Rcpp8internal34primitive_range_wrap__impl__nocastIN9__gnu_cxx17__normal_iteratorIPKiSt6vectorIiSaIiEEEEiEEP7SEXPRECT_SC_St26random_access_iterator_tag"
 "_ZN4Rcpp8internal34primitive_range_wrap__impl__nocastIPKddEEP7SEXPRECT_S6_St26random_access_iterator_tag"
 "_ZN4Rcpp8internal3nthEP7SEXPRECi"
 "_ZN4Rcpp8internal6casterIddEET0_T_"
 "_ZN4Rcpp8internal6casterIdmEET0_T_"
 "_ZN4Rcpp8internal6casterIibEET0_T_"
 "_ZN4Rcpp8internal6casterIiiEET0_T_"
 "_ZN4Rcpp8internal8EvalDataC1EP7SEXPRECS3_"
 "_ZN4Rcpp8internal9maybeJumpEPv8Rboolean"
 "_ZN4Rcpp8RNGScopeC1Ev"
 "_ZN4Rcpp8RNGScopeD1Ev"
 "_ZN4Rcpp8RostreamILb0EEC1Ev"
 "_ZN4Rcpp8RostreamILb0EED0Ev"
 "_ZN4Rcpp8RostreamILb0EED1Ev"
 "_ZN4Rcpp8RostreamILb1EEC1Ev"
 "_ZN4Rcpp8RostreamILb1EED0Ev"
 "_ZN4Rcpp8RostreamILb1EED1Ev"
 "_ZN4Rcpp9DimensionC1ERKyS2_"
 "_ZN4Rcpp9DimensionD1Ev"
 "_ZN4Rcpp9exception18record_stack_traceEv"
 "_ZN4Rcpp9exceptionC1EPKcb"
 "_ZN4Rcpp9exceptionD0Ev"
 "_ZN4Rcpp9exceptionD1Ev"
 "_ZN9__gnu_cxx17__normal_iteratorIPKiSt6vectorIiSaIiEEEC1ERKS2_"
 "_ZN9__gnu_cxx17__normal_iteratorIPKNSt7__cxx1112basic_stringIcSt11char_traitsIcESaIcEEESt6vectorIS6_SaIS6_EEEC1ERKS8_"
 "_ZN9__gnu_cxxmiIPKiSt6vectorIiSaIiEEEENS_17__normal_iteratorIT_T0_E15difference_typeERKS9_SC_"
 "_ZNK10tinyformat6detail9FormatArg5toIntEv"
 "_ZNK10tinyformat6detail9FormatArg6formatERSoPKcS4_i"
 "_ZNK4Rcpp12not_a_matrix4whatEv"
 "_ZNK4Rcpp14not_compatible4whatEv"
 "_ZNK4Rcpp15PreserveStorageINS_12RObject_ImplIS0_EEEcvP7SEXPRECEv"
 "_ZNK4Rcpp15PreserveStorageINS_6VectorILi13ES0_EEE5get__Ev"
 "_ZNK4Rcpp15PreserveStorageINS_6VectorILi13ES0_EEEcvP7SEXPRECEv"
 "_ZNK4Rcpp15PreserveStorageINS_6VectorILi14ES0_EEEcvP7SEXPRECEv"
 "_ZNK4Rcpp15PreserveStorageINS_6VectorILi16ES0_EEE5get__Ev"
 "_ZNK4Rcpp15PreserveStorageINS_6VectorILi16ES0_EEEcvP7SEXPRECEv"
 "_ZNK4Rcpp15PreserveStorageINS_6VectorILi19ES0_EEE5get__Ev"
 "_ZNK4Rcpp15PreserveStorageINS_6VectorILi19ES0_EEEcvP7SEXPRECEv"
 "_ZNK4Rcpp20AttributeProxyPolicyINS_6VectorILi14ENS_15PreserveStorageEEEE14AttributeProxy3getEv"
 "_ZNK4Rcpp20AttributeProxyPolicyINS_6VectorILi14ENS_15PreserveStorageEEEE14AttributeProxycvT_INS1_ILi13ES2_EEEEv"
 "_ZNK4Rcpp6ShieldIP7SEXPRECEcvS2_Ev"
 "_ZNK4Rcpp6traits11proxy_cacheILi16ENS_15PreserveStorageEE3getEv"
 "_ZNK4Rcpp6traits11proxy_cacheILi19ENS_15PreserveStorageEE3getEv"
 "_ZNK4Rcpp6traits14r_vector_cacheILi14ENS_15PreserveStorageEE3getEv"
 "_ZNK4Rcpp6VectorILi13ENS_15PreserveStorageEE4sizeEv"
 "_ZNK4Rcpp8internal16NamedPlaceHolderixERKNSt7__cxx1112basic_stringIcSt11char_traitsIcESaIcEEE"
 "_ZNK4Rcpp9DimensioncvP7SEXPRECEv"
 "_ZNK4Rcpp9exception12include_callEv"
 "_ZNK4Rcpp9exception21copy_stack_trace_to_rEv"
 "_ZNK4Rcpp9exception4whatEv"
 "_ZNK9__gnu_cxx17__normal_iteratorIPKiSt6vectorIiSaIiEEE4baseEv"
 "_ZNK9__gnu_cxx17__normal_iteratorIPKiSt6vectorIiSaIiEEEixEx"
 "_ZNK9__gnu_cxx17__normal_iteratorIPKNSt7__cxx1112basic_stringIcSt11char_traitsIcESaIcEEESt6vectorIS6_SaIS6_EEE4baseEv"
 "_ZNKSt15__new_allocatorIiE11_M_max_sizeEv"
 "_ZNKSt15__new_allocatorIiE8max_sizeEv"
 "_ZNKSt17integral_constantIbLb1EEcvbEv"
 "_ZNKSt6vectorIiSaIiEE3endEv"
 "_ZNKSt6vectorIiSaIiEE5beginEv"
 "_ZNKSt6vectorINSt7__cxx1112basic_stringIcSt11char_traitsIcESaIcEEESaIS5_EE3endEv"
 "_ZNKSt6vectorINSt7__cxx1112basic_stringIcSt11char_traitsIcESaIcEEESaIS5_EE4sizeEv"
 "_ZNKSt6vectorINSt7__cxx1112basic_stringIcSt11char_traitsIcESaIcEEESaIS5_EE5beginEv"
 "_ZNKSt8ios_base5flagsEv"
 "_ZNKSt8ios_base5widthEv"
 "_ZNKSt8ios_base9precisionEv"
 "_ZNKSt9type_info4nameEv"
 "_ZNSaIiEC1ERKS_"
 "_ZNSaIiEC1Ev"
 "_ZNSaIiEC2ERKS_"
 "_ZNSaIiED1Ev"
 "_ZNSaIiED2Ev"
 "_ZNSaINSt7__cxx1112basic_stringIcSt11char_traitsIcESaIcEEEEC2Ev"
 "_ZNSaINSt7__cxx1112basic_stringIcSt11char_traitsIcESaIcEEEED2Ev"
 "_ZNSt11__copy_moveILb0ELb0ESt26random_access_iterator_tagE8__copy_mIPKNSt7__cxx1112basic_stringIcSt11char_traitsIcESaIcEEEN4Rcpp8internal14Proxy_IteratorINSC_12string_proxyILi16ENSB_15PreserveStorageEEEEEEET0_T_SJ_SI_"
 "_ZNSt11char_traitsIcE12to_char_typeERKi"
 "_ZNSt11char_traitsIcE3eofEv"
 "_ZNSt12__mutex_baseC2Ev"
 "_ZNSt12__mutex_baseD2Ev"
 "_ZNSt12_Destroy_auxILb0EE9__destroyIPNSt7__cxx1112basic_stringIcSt11char_traitsIcESaIcEEEEEvT_S9_"
 "_ZNSt12_Destroy_auxILb1EE9__destroyIPiEEvT_S3_"
 "_ZNSt12_Vector_baseIiSaIiEE11_M_allocateEy"
 "_ZNSt12_Vector_baseIiSaIiEE12_Vector_implC1ERKS0_"
 "_ZNSt12_Vector_baseIiSaIiEE12_Vector_implD1Ev"
 "_ZNSt12_Vector_baseIiSaIiEE13_M_deallocateEPiy"
 "_ZNSt12_Vector_baseIiSaIiEE17_M_create_storageEy"
 "_ZNSt12_Vector_baseIiSaIiEE17_Vector_impl_dataC2Ev"
 "_ZNSt12_Vector_baseIiSaIiEE19_M_get_Tp_allocatorEv"
 "_ZNSt12_Vector_baseIiSaIiEEC2EyRKS0_"
 "_ZNSt12_Vector_baseIiSaIiEED2Ev"
 "_ZNSt12_Vector_baseINSt7__cxx1112basic_stringIcSt11char_traitsIcESaIcEEESaIS5_EE12_Vector_implC1Ev"
 "_ZNSt12_Vector_baseINSt7__cxx1112basic_stringIcSt11char_traitsIcESaIcEEESaIS5_EE12_Vector_implD1Ev"
 "_ZNSt12_Vector_baseINSt7__cxx1112basic_stringIcSt11char_traitsIcESaIcEEESaIS5_EE13_M_deallocateEPS5_y"
 "_ZNSt12_Vector_baseINSt7__cxx1112basic_stringIcSt11char_traitsIcESaIcEEESaIS5_EE17_Vector_impl_dataC2Ev"
 "_ZNSt12_Vector_baseINSt7__cxx1112basic_stringIcSt11char_traitsIcESaIcEEESaIS5_EE19_M_get_Tp_allocatorEv"
 "_ZNSt12_Vector_baseINSt7__cxx1112basic_stringIcSt11char_traitsIcESaIcEEESaIS5_EEC2Ev"
 "_ZNSt12_Vector_baseINSt7__cxx1112basic_stringIcSt11char_traitsIcESaIcEEESaIS5_EED2Ev"
 "_ZNSt14numeric_limitsIdE9quiet_NaNEv"
 "_ZNSt14numeric_limitsIyE3maxEv"
 "_ZNSt15__new_allocatorIiE10deallocateEPiy"
 "_ZNSt15__new_allocatorIiE8allocateEyPKv"
 "_ZNSt15__new_allocatorIiEC2ERKS0_"
 "_ZNSt15__new_allocatorIiEC2Ev"
 "_ZNSt15__new_allocatorIiED2Ev"
 "_ZNSt15__new_allocatorINSt7__cxx1112basic_stringIcSt11char_traitsIcESaIcEEEE10deallocateEPS5_y"
 "_ZNSt15__new_allocatorINSt7__cxx1112basic_stringIcSt11char_traitsIcESaIcEEEEC2Ev"
 "_ZNSt15__new_allocatorINSt7__cxx1112basic_stringIcSt11char_traitsIcESaIcEEEED2Ev"
 "_ZNSt16allocator_traitsISaIiEE10deallocateERS0_Piy"
 "_ZNSt16allocator_traitsISaIiEE8allocateERS0_y"
 "_ZNSt16allocator_traitsISaIiEE8max_sizeERKS0_"
 "_ZNSt16allocator_traitsISaINSt7__cxx1112basic_stringIcSt11char_traitsIcESaIcEEEEE10deallocateERS6_PS5_y"
 "_ZNSt27__uninitialized_default_n_1ILb1EE18__uninit_default_nIPiyEET_S3_T0_"
 "_ZNSt5mutexC1Ev"
 "_ZNSt5mutexD1Ev"
 "_ZNSt6vectorIiSaIiEE11_S_max_sizeERKS0_"
 "_ZNSt6vectorIiSaIiEE17_S_check_init_lenEyRKS0_"
 "_ZNSt6vectorIiSaIiEE21_M_default_initializeEy"
 "_ZNSt6vectorIiSaIiEEC1EyRKS0_"
 "_ZNSt6vectorIiSaIiEED1Ev"
 "_ZNSt6vectorIiSaIiEEixEy"
 "_ZNSt6vectorINSt7__cxx1112basic_stringIcSt11char_traitsIcESaIcEEESaIS5_EEC1Ev"
 "_ZNSt6vectorINSt7__cxx1112basic_stringIcSt11char_traitsIcESaIcEEESaIS5_EED1Ev"
 "_ZNSt8ios_base4setfESt13_Ios_Fmtflags"
 "_ZNSt8ios_base4setfESt13_Ios_FmtflagsS0_"
 "_ZNSt8ios_base5flagsESt13_Ios_Fmtflags"
 "_ZNSt8ios_base5widthEx"
 "_ZNSt8ios_base6unsetfESt13_Ios_Fmtflags"
 "_ZNSt8ios_base9precisionEx"
 "_ZNSt9bad_allocC1Ev"
 "_ZNSt9exceptionC2Ev"
 "_ZnwyPv"
 "_ZSt10__distanceIN9__gnu_cxx17__normal_iteratorIPKiSt6vectorIiSaIiEEEEENSt15iterator_traitsIT_E15difference_typeES9_S9_St26random_access_iterator_tag"
 "_ZSt10__distanceIPKdENSt15iterator_traitsIT_E15difference_typeES3_S3_St26random_access_iterator_tag"
 "_ZSt10__fill_n_aIPiyiET_S1_T0_RKT1_St26random_access_iterator_tag"
 "_ZSt10_ConstructIiJEEvPT_DpOT0_"
 "_ZSt11__addressofIiEPT_RS0_"
 "_ZSt11__addressofINSt7__cxx1112basic_stringIcSt11char_traitsIcESaIcEEEEPT_RS6_"
 "_ZSt12__miter_baseIN9__gnu_cxx17__normal_iteratorIPKNSt7__cxx1112basic_stringIcSt11char_traitsIcESaIcEEESt6vectorIS7_SaIS7_EEEEET_SE_"
 "_ZSt12__niter_baseIN4Rcpp8internal14Proxy_IteratorINS1_12string_proxyILi16ENS0_15PreserveStorageEEEEEET_S7_"
 "_ZSt12__niter_baseIPKNSt7__cxx1112basic_stringIcSt11char_traitsIcESaIcEEESt6vectorIS5_SaIS5_EEET_N9__gnu_cxx17__normal_iteratorISB_T0_EE"
 "_ZSt12__niter_wrapIN4Rcpp8internal14Proxy_IteratorINS1_12string_proxyILi16ENS0_15PreserveStorageEEEEEET_RKS7_S7_"
 "_ZSt13__copy_move_aILb0EN9__gnu_cxx17__normal_iteratorIPKNSt7__cxx1112basic_stringIcSt11char_traitsIcESaIcEEESt6vectorIS7_SaIS7_EEEEN4Rcpp8internal14Proxy_IteratorINSF_12string_proxyILi16ENSE_15PreserveStorageEEEEEET1_T0_SM_SL_"
 "_ZSt14__copy_move_a1ILb0EPKNSt7__cxx1112basic_stringIcSt11char_traitsIcESaIcEEEN4Rcpp8internal14Proxy_IteratorINS9_12string_proxyILi16ENS8_15PreserveStorageEEEEEET1_T0_SG_SF_"
 "_ZSt14__copy_move_a2ILb0EPKNSt7__cxx1112basic_stringIcSt11char_traitsIcESaIcEEEN4Rcpp8internal14Proxy_IteratorINS9_12string_proxyILi16ENS8_15PreserveStorageEEEEEET1_T0_SG_SF_"
 "_ZSt17__size_to_integery"
 "_ZSt19__iterator_categoryIN9__gnu_cxx17__normal_iteratorIPKiSt6vectorIiSaIiEEEEENSt15iterator_traitsIT_E17iterator_categoryERKS9_"
 "_ZSt19__iterator_categoryIPiENSt15iterator_traitsIT_E17iterator_categoryERKS2_"
 "_ZSt19__iterator_categoryIPKdENSt15iterator_traitsIT_E17iterator_categoryERKS3_"
 "_ZSt25__uninitialized_default_nIPiyET_S1_T0_"
 "_ZSt27__uninitialized_default_n_aIPiyiET_S1_T0_RSaIT1_E"
 "_ZSt3minIiERKT_S2_S2_"
 "_ZSt3minIyERKT_S2_S2_"
 "_ZSt4copyIN9__gnu_cxx17__normal_iteratorIPKNSt7__cxx1112basic_stringIcSt11char_traitsIcESaIcEEESt6vectorIS7_SaIS7_EEEEN4Rcpp8internal14Proxy_IteratorINSF_12string_proxyILi16ENSE_15PreserveStorageEEEEEET0_T_SM_SL_"
 "_ZSt4moveIRNSt7__cxx1112basic_stringIcSt11char_traitsIcESaIcEEEEONSt16remove_referenceIT_E4typeEOS8_"
 "_ZSt6fill_nIPiyiET_S1_T0_RKT1_"
 "_ZSt7forwardIiEOT_RNSt16remove_referenceIS0_E4typeE"
 "_ZSt8__fill_aIPiiEvT_S1_RKT0_"
 "_ZSt8_DestroyINSt7__cxx1112basic_stringIcSt11char_traitsIcESaIcEEEEvPT_"
 "_ZSt8_DestroyIPiEvT_S1_"
 "_ZSt8_DestroyIPiiEvT_S1_RSaIT0_E"
 "_ZSt8_DestroyIPNSt7__cxx1112basic_stringIcSt11char_traitsIcESaIcEEEEvT_S7_"
 "_ZSt8_DestroyIPNSt7__cxx1112basic_stringIcSt11char_traitsIcESaIcEEES5_EvT_S7_RSaIT0_E"
 "_ZSt8distanceIN9__gnu_cxx17__normal_iteratorIPKiSt6vectorIiSaIiEEEEENSt15iterator_traitsIT_E15difference_typeES9_S9_"
 "_ZSt8distanceIPKdENSt15iterator_traitsIT_E15difference_typeES3_S3_"
 "_ZSt9__fill_a1IPiiEN9__gnu_cxx11__enable_ifIXsrSt11__is_scalarIT0_E7__valueEvE6__typeET_S8_RKS4_"
 "_ZStaNRSt13_Ios_FmtflagsS_"
 "_ZStanSt13_Ios_FmtflagsS_"
 "_ZStcoSt13_Ios_Fmtflags"
 "_ZSteqRKSaIcES1_"
 "_ZStoRRSt13_Ios_FmtflagsS_"
 "_ZStorSt13_Ios_FmtflagsS_"
 "_ZStplIcSt11char_traitsIcESaIcEENSt7__cxx1112basic_stringIT_T0_T1_EEOS8_S9_"
 "_ZTCN4Rcpp8RostreamILb0EEE0_So"
 "_ZTCN4Rcpp8RostreamILb1EEE0_So"
 "_ZTIN4Rcpp10RstreambufILb0EEE"
 "_ZTIN4Rcpp10RstreambufILb1EEE"
 "_ZTIN4Rcpp12not_a_matrixE"
 "_ZTIN4Rcpp14not_compatibleE"
 "_ZTIN4Rcpp17LongjumpExceptionE"
 "_ZTIN4Rcpp8internal20InterruptedExceptionE"
 "_ZTIN4Rcpp8RostreamILb0EEE"
 "_ZTIN4Rcpp8RostreamILb1EEE"
 "_ZTIN4Rcpp9exceptionE"
 "_ZTISt11logic_error"
 "_ZTISt12out_of_range"
 "_ZTISt9bad_alloc"
 "_ZTISt9exception"
 "_ZTSN4Rcpp10RstreambufILb0EEE"
 "_ZTSN4Rcpp10RstreambufILb1EEE"
 "_ZTSN4Rcpp12not_a_matrixE"
 "_ZTSN4Rcpp14not_compatibleE"
 "_ZTSN4Rcpp17LongjumpExceptionE"
 "_ZTSN4Rcpp8internal20InterruptedExceptionE"
 "_ZTSN4Rcpp8RostreamILb0EEE"
 "_ZTSN4Rcpp8RostreamILb1EEE"
 "_ZTSN4Rcpp9exceptionE"
 "_ZTSSt11logic_error"
 "_ZTSSt12out_of_range"
 "_ZTSSt9bad_alloc"
 "_ZTSSt9exception"
 "_ZTTN4Rcpp8RostreamILb0EEE"
 "_ZTTN4Rcpp8RostreamILb1EEE"
 "_ZTv0_n24_N4Rcpp8RostreamILb0EED0Ev"
 "_ZTv0_n24_N4Rcpp8RostreamILb0EED1Ev"
 "_ZTv0_n24_N4Rcpp8RostreamILb1EED0Ev"
 "_ZTv0_n24_N4Rcpp8RostreamILb1EED1Ev"
 "_ZTVN4Rcpp10RstreambufILb0EEE"
 "_ZTVN4Rcpp10RstreambufILb1EEE"
 "_ZTVN4Rcpp12not_a_matrixE"
 "_ZTVN4Rcpp14not_compatibleE"
 "_ZTVN4Rcpp8RostreamILb0EEE"
 "_ZTVN4Rcpp8RostreamILb1EEE"
 "_ZTVN4Rcpp9exceptionE"
 "_ZZ20rcpp_get_stack_tracevE3fun"
 "_ZZ20rcpp_set_stack_traceP7SEXPRECE3fun"
 "_ZZ7dataptrP7SEXPRECE3fun"
 "_ZZ8demangleRKNSt7__cxx1112basic_stringIcSt11char_traitsIcESaIcEEEE3funB5cxx11"
 "_ZZN4Rcpp20Rcpp_precious_removeEP7SEXPRECE3fun"
 "_ZZN4Rcpp22Rcpp_precious_preserveEP7SEXPRECE3fun"
 "_ZZN4Rcpp8internal12exitRNGScopeEvE3fun"
 "_ZZN4Rcpp8internal13enterRNGScopeEvE3fun"
 "R_init_BayesCPs"
 ".gomp_critical_user_arma_Cube_mat_ptrs"
 "_Z10SimEpiDatadddN4arma3ColIdEEdm"
 "_Z10update_rhoN4arma3MatIdEERNS_3ColIdEEdddddddiddS4_S3_S1_"
 "_Z11compute_k_nddi"
 "_Z11compute_s_niN4arma3ColIdEEfiNS_3MatIdEEfiS3_i"
 "_Z11indicator_1ii"
 "_Z11indicator_2ii"
 "_Z11indicator_3i"
 "_Z11log_sum_expN4arma3ColIdEE"
 "_Z11marginal_CPN4arma3MatIdEEiidddddddddiiidddidm"
 "_Z11Shuffle_cppN4arma3ColIdEE"
 "_Z11UpdateGammadN4arma3MatIdEENS_3ColIdEEddddS1_S3_RS3_S4_P7gsl_rngd"
 "_Z11UpdateSigmaN4arma3ColIdEEddRS1_S2_P7gsl_rng"
 "_Z11UpdateThetaddN4arma3ColIdEERS1_ddP7gsl_rng"
 "_Z12get_order_VIN4arma3MatIdEE"
 "_Z12lgamma_multiii"
 "_Z13rshiftedgammadddP7gsl_rng"
 "_Z13which_min_cppN4arma3ColIdEE"
 "_Z14AbsStirling1stdd"
 "_Z14dbinom_log_cppddd"
 "_Z14ExtractSubDataN4arma3MatIdEENS_3ColIdEEi"
 "_Z15Posterior_UniTSN4arma3MatIdEENS_3ColIdEEdddddd"
 "_Z16ClusteringCPsEPIN4arma3MatIdEEiiiidddddddddddddm"
 "_Z16DoobGillespieAlgdddN4arma3ColIdEEdP7gsl_rngd"
 "_Z16Likelihood_UniTSN4arma3MatIdEENS_3ColIdEEdddd"
 "_Z16LogLikelihood_TSN4arma3MatIdEES1_dddd"
 "_Z16update_partitionN4arma3MatIdEERNS_3ColIdEERS1_S4_S3_dddddddS3_iiddd"
 "_Z17dmultinom_log_cppN4arma3ColIdEES1_"
 "_Z17norm_constants_TSN4arma3MatIdEEdidddd"
 "_Z17Posterior_MultiTSN4arma3MatIdEENS_3ColIdEEdddddS1_S3_"
 "_Z18AlphaMergeOrder_TSN4arma3MatIdEENS_3ColIdEES3_iS3_ddddd"
 "_Z18AlphaSplitOrder_TSN4arma3MatIdEENS_3ColIdEES3_iS3_ddddd"
 "_Z18Likelihood_MultiTSN4arma3MatIdEENS_3ColIdEEdddS1_S3_"
 "_Z18norm_constants_EPIN4arma3MatIdEEdiddNS_3ColIdEEidP7gsl_rngddd"
 "_Z19clean_partition_cppN4arma3ColIdEE"
 "_Z19update_single_orderN4arma3MatIdEENS_3ColIdEEiRS1_RS3_dddddS3_iddd"
 "_Z20AlphaShuffleOrder_TSN4arma3MatIdEENS_3ColIdEES3_ddddd"
 "_Z20detect_cp_univariateN4arma3ColIdEEidddddddbm"
 "_Z20FullConditionalGammaN4arma3MatIdEENS_3ColIdEEdddddS1_S3_"
 "_Z20FullConditionalSigmaN4arma3ColIdEEdddddd"
 "_Z21AlphaMergeOrder_UniTSN4arma3MatIdEENS_3ColIdEES3_dddddddd"
 "_Z21AlphaSplitOrder_UniTSN4arma3MatIdEENS_3ColIdEES3_dddddddd"
 "_Z21generate_random_orderddP7gsl_rng"
 "_Z21integrated_curves_matdN4arma3ColIdEEddddidd"
 "_Z21norm_constantsMultiTSN4arma4CubeIdEEdiddNS_3MatIdEENS_3ColIdEEd"
 "_Z22detect_cp_multivariateN4arma3MatIdEEidddS1_NS_3ColIdEEdddbm"
 "_Z23AlphaMergeOrder_MultiTSN4arma3MatIdEENS_3ColIdEES3_dddddddS1_S3_"
 "_Z23AlphaMergePartition_cppN4arma3ColIdEES1_S1_ddddS1_S1_S1_"
 "_Z23AlphaShuffleOrder_UniTSN4arma3MatIdEENS_3ColIdEES3_dddddd"
 "_Z23AlphaSplitOrder_MultiTSN4arma3MatIdEENS_3ColIdEES3_dddddddS1_S3_"
 "_Z23AlphaSplitPartition_cppN4arma3ColIdEES1_S1_ddddS1_S1_S1_"
 "_Z25AlphaShuffleOrder_MultiTSN4arma3MatIdEENS_3ColIdEES3_dddddS1_S3_"
 "_Z25AlphaShuffleOrder_MultiTSN4arma4CubeIdEENS_3ColIdEES3_dddNS_3MatIdEES3_"
 "_Z25ClusteringCPsUnivariateTSN4arma3MatIdEEiiiddddddm"
 "_Z25generate_random_partitioniP7gsl_rng"
 "_Z25SplitMergeAccUnivariateTSN4arma3MatIdEERNS_3ColIdEEiddddd"
 "_Z27AlphaMergeOrder_MultiTS_AccN4arma4CubeIdEENS_3ColIdEES3_dddddNS_3MatIdEES3_"
 "_Z27AlphaSplitOrder_MultiTS_AccN4arma4CubeIdEENS_3ColIdEES3_dddddNS_3MatIdEES3_"
 "_Z27ClusteringCPsMultivariateTSN4arma4CubeIdEEiiidddNS_3MatIdEENS_3ColIdEEddm"
 "_Z27SplitMergeAccMultivariateTSN4arma4CubeIdEERNS_3ColIdEEidddNS_3MatIdEES3_d"
 "_Z3psmN4arma3MatIdEE"
 "_Z4rintN4arma3ColIdEE"
 "_Z6my_maxdd"
 "_Z6my_mindd"
 "_Z6rbinomid"
 "_Z7dataptrP7SEXPREC"
 "_Z7rmultiniN4arma3ColIdEE"
 "_Z8Prior_TSN4arma3ColIdEEdd"
 "_Z9DSA_curvediddN4arma3ColIdEEdd"
 "_Z9Merge_cppN4arma3ColIdEE"
 "_Z9SIR_curvediN4arma3ColIdEEdddddd"
 "_Z9Split_cppN4arma3ColIdEE"
 "_Z9table_cppN4arma3ColIdEE"
 "_ZGVN4arma5DatumIdE3nanE"
 "_ZGVN4arma5DatumIjE3nanE"
 "_ZGVZ7dataptrP7SEXPRECE3fun"
 "_ZGVZN4Rcpp20Rcpp_precious_removeEP7SEXPRECE3fun"
 "_ZGVZN4Rcpp22Rcpp_precious_preserveEP7SEXPRECE3fun"
 "_ZN10tinyformat10FormatListC2EPNS_6detail9FormatArgEi"
 "_ZN10tinyformat11formatValueIiEEvRSoPKcS3_iRKT_"
 "_ZN10tinyformat11formatValueINSt7__cxx1112basic_stringIcSt11char_traitsIcESaIcEEEEEvRSoPKcS9_iRKT_"
 "_ZN10tinyformat14makeFormatListIJEEENS_6detail11FormatListNIXsZT_EEEDpRKT_"
 "_ZN10tinyformat14makeFormatListIJiEEENS_6detail11FormatListNIXsZT_EEEDpRKT_"
 "_ZN10tinyformat14makeFormatListIJNSt7__cxx1112basic_stringIcSt11char_traitsIcESaIcEEEEEENS_6detail11FormatListNIXsZT_EEEDpRKT_"
 "_ZN10tinyformat6detail10formatImplERSoPKcPKNS0_9FormatArgEi"
 "_ZN10tinyformat6detail11FormatListNILi0EEC1Ev"
 "_ZN10tinyformat6detail11FormatListNILi1EEC1IJiEEEDpRKT_"
 "_ZN10tinyformat6detail11FormatListNILi1EEC1IJNSt7__cxx1112basic_stringIcSt11char_traitsIcESaIcEEEEEEDpRKT_"
 "_ZN10tinyformat6detail12convertToIntIiLb1EE6invokeERKi"
 "_ZN10tinyformat6detail12convertToIntINSt7__cxx1112basic_stringIcSt11char_traitsIcESaIcEEELb0EE6invokeERKS7_"
 "_ZN10tinyformat6detail15formatTruncatedIiEEvRSoRKT_i"
 "_ZN10tinyformat6detail15formatTruncatedINSt7__cxx1112basic_stringIcSt11char_traitsIcESaIcEEEEEvRSoRKT_i"
 "_ZN10tinyformat6detail17formatValueAsTypeIicLb1EE6invokeERSoRKi"
 "_ZN10tinyformat6detail18parseIntAndAdvanceERPKc"
 "_ZN10tinyformat6detail21streamStateFromFormatERSoRbRiPKcPKNS0_9FormatArgES3_i"
 "_ZN10tinyformat6detail24printFormatStringLiteralERSoPKc"
 "_ZN10tinyformat6detail9FormatArg10formatImplIiEEvRSoPKcS5_iPKv"
 "_ZN10tinyformat6detail9FormatArg10formatImplINSt7__cxx1112basic_stringIcSt11char_traitsIcESaIcEEEEEvRSoPKcSB_iPKv"
 "_ZN10tinyformat6detail9FormatArg9toIntImplIiEEiPKv"
 "_ZN10tinyformat6detail9FormatArg9toIntImplINSt7__cxx1112basic_stringIcSt11char_traitsIcESaIcEEEEEiPKv"
 "_ZN10tinyformat6detail9FormatArgC1IiEERKT_"
 "_ZN10tinyformat6detail9FormatArgC1INSt7__cxx1112basic_stringIcSt11char_traitsIcESaIcEEEEERKT_"
 "_ZN10tinyformat6formatIJEEENSt7__cxx1112basic_stringIcSt11char_traitsIcESaIcEEEPKcDpRKT_"
 "_ZN10tinyformat6formatIJEEEvRSoPKcDpRKT_"
 "_ZN10tinyformat6formatIJiEEENSt7__cxx1112basic_stringIcSt11char_traitsIcESaIcEEEPKcDpRKT_"
 "_ZN10tinyformat6formatIJiEEEvRSoPKcDpRKT_"
 "_ZN10tinyformat6formatIJNSt7__cxx1112basic_stringIcSt11char_traitsIcESaIcEEEEEES6_PKcDpRKT_"
 "_ZN10tinyformat6formatIJNSt7__cxx1112basic_stringIcSt11char_traitsIcESaIcEEEEEEvRSoPKcDpRKT_"
 "_ZN10tinyformat7vformatERSoPKcRKNS_10FormatListE"
 "_ZN1R6dgammaEdddi"
 "_ZN4arma10arma_checkIA27_cEEvbRKT_"
 "_ZN4arma10arma_checkIA28_cEEvbRKT_"
 "_ZN4arma10arma_checkIA30_cEEvbRKT_"
 "_ZN4arma10arma_checkIA38_cEEvbRKT_"
 "_ZN4arma10arma_checkIA41_cEEvbRKT_"
 "_ZN4arma10arma_checkIA43_cEEvbRKT_"
 "_ZN4arma10arma_checkIA46_cEEvbRKT_"
 "_ZN4arma10arma_checkIA53_cEEvbRKT_"
 "_ZN4arma10arma_checkIA66_cEEvbRKT_"
 "_ZN4arma10arma_checkIA69_cEEvbRKT_"
 "_ZN4arma10arma_checkIA74_cEEvbRKT_"
 "_ZN4arma10arma_checkIA75_cEEvbRKT_"
 "_ZN4arma10arma_checkIA78_cEEvbRKT_"
 "_ZN4arma10arma_checkIPcEEvbRKT_"
 "_ZN4arma10arma_checkIPKcEEvbRKT_"
 "_ZN4arma10arma_isnanIdEEbT_"
 "_ZN4arma10eglue_coreINS_10eglue_plusEE5applyINS_3MatIdEES5_NS_3eOpINS_4GlueINS_5eGlueINS_11subview_colIdEENS6_ISA_NS_16eop_scalar_timesEEENS_11eglue_minusEEENS_2OpISE_NS_9op_htransEEENS_10glue_timesEEENS_19eop_scalar_div_postEEEEEvRT_RKNS8_IT0_T1_S1_EE"
 "_ZN4arma10eglue_coreINS_10eglue_plusEE5applyINS_3MatIdEES5_NS_3eOpINS_4GlueINS_5eGlueINS_2OpINS_11subview_rowIdEENS_9op_htransEEENS9_ISB_NS_10op_htrans2EEENS_11eglue_minusEEENS9_ISH_SC_EENS_10glue_timesEEENS_19eop_scalar_div_postEEEEEvRT_RKNS8_IT0_T1_S1_EE"
 "_ZN4arma10eglue_coreINS_11eglue_minusEE5applyINS_3MatIdEENS_11subview_colIdEENS_3eOpIS7_NS_16eop_scalar_timesEEEEEvRT_RKNS_5eGlueIT0_T1_S1_EE"
 "_ZN4arma10eglue_coreINS_11eglue_minusEE5applyINS_3MatIdEENS_2OpINS_11subview_rowIdEENS_9op_htransEEENS6_IS8_NS_10op_htrans2EEEEEvRT_RKNS_5eGlueIT0_T1_S1_EE"
 "_ZN4arma10eglue_coreINS_11eglue_minusEE5applyINS_3MatIdEENS_3ColIdEES7_EEvRT_RKNS_5eGlueIT0_T1_S1_EE"
 "_ZN4arma10eglue_coreINS_11eglue_minusEE5applyINS_3MatIdEENS_4GlueINS_12subview_colsIdEENS_2OpINS_11subview_rowIdEENS_9op_htransEEENS_10glue_timesEEENS_11subview_colIdEEEEvRT_RKNS_5eGlueIT0_T1_S1_EE"
 "_ZN4arma10eglue_coreINS_11eglue_minusEE5applyINS_3MatIdEENS_5eGlueINS6_INS6_IS5_NS_4GlueINS_11subview_colIdEENS_2OpIS9_NS_9op_htransEEENS_10glue_timesEEENS_10eglue_plusEEES5_SF_EENS_3eOpINS7_INS_3ColIdEENSA_ISK_SB_EESD_EENS_16eop_scalar_timesEEESF_EESO_EEvRT_RKNS6_IT0_T1_S1_EE"
 "_ZN4arma10eglue_coreINS_11eglue_minusEE5applyINS_3MatIdEENS_5eGlueINS6_INS6_IS5_NS_4GlueINS_2OpINS_11subview_rowIdEENS_9op_htransEEESA_NS_10glue_timesEEENS_10eglue_plusEEES5_SF_EENS_3eOpINS7_INS_3ColIdEENS8_ISK_SB_EESD_EENS_16eop_scalar_timesEEESF_EESO_EEvRT_RKNS6_IT0_T1_S1_EE"
 "_ZN4arma10eglue_coreINS_11eglue_minusEE5applyINS_3MatIdEENS_5eGlueINS6_IS5_NS_4GlueINS_11subview_colIdEENS_2OpIS9_NS_9op_htransEEENS_10glue_timesEEENS_10eglue_plusEEENS_3eOpINS7_INS_3ColIdEENSA_ISJ_SB_EESD_EENS_16eop_scalar_timesEEESF_EESN_EEvRT_RKNS6_IT0_T1_S1_EE"
 "_ZN4arma10eglue_coreINS_11eglue_minusEE5applyINS_3MatIdEENS_5eGlueINS6_IS5_NS_4GlueINS_2OpINS_11subview_rowIdEENS_9op_htransEEESA_NS_10glue_timesEEENS_10eglue_plusEEENS_3eOpINS7_INS_3ColIdEENS8_ISJ_SB_EESD_EENS_16eop_scalar_timesEEESF_EESN_EEvRT_RKNS6_IT0_T1_S1_EE"
 "_ZN4arma10eglue_plus4textEv"
 "_ZN4arma10glue_times5applyIdLb0ELb0ELb0ENS_3MatIdEES3_EEvRNS2_IT_EERKT3_RKT4_S4_"
 "_ZN4arma10glue_times5applyIdLb0ELb0ELb0ENS_3RowIdEENS_3MatIdEEEEvRNS4_IT_EERKT3_RKT4_S6_"
 "_ZN4arma10glue_times5applyIdLb0ELb0ELb1ELb0ENS_3MatIdEES3_S3_EEvRNS2_IT_EERKT4_RKT5_RKT6_S4_"
 "_ZN4arma10glue_times5applyIdLb0ELb0ELb1ELb0ENS_3RowIdEENS_3MatIdEES3_EEvRNS4_IT_EERKT4_RKT5_RKT6_S6_"
 "_ZN4arma10glue_times5applyIdLb0ELb1ELb0ENS_3ColIdEES3_EEvRNS_3MatIT_EERKT3_RKT4_S5_"
 "_ZN4arma10glue_times5applyIdLb0ELb1ELb0ENS_3MatIdEENS_3RowIdEEEEvRNS2_IT_EERKT3_RKT4_S6_"
 "_ZN4arma10glue_times5applyIdLb0ELb1ELb0ENS_3MatIdEES3_EEvRNS2_IT_EERKT3_RKT4_S4_"
 "_ZN4arma10glue_times5applyIdLb1ELb0ELb0ENS_3RowIdEES3_EEvRNS_3MatIT_EERKT3_RKT4_S5_"
 "_ZN4arma10glue_times5applyINS_11subview_colIdEENS_2OpIS3_NS_9op_htransEEEEEvRNS_3MatINT_9elem_typeEEERKNS_4GlueIS8_T0_S0_EE"
 "_ZN4arma10glue_times5applyINS_12subview_colsIdEENS_2OpINS_11subview_rowIdEENS_9op_htransEEEEEvRNS_3MatINT_9elem_typeEEERKNS_4GlueISA_T0_S0_EE"
 "_ZN4arma10glue_times5applyINS_2OpINS_11subview_rowIdEENS_9op_htransEEES4_EEvRNS_3MatINT_9elem_typeEEERKNS_4GlueIS8_T0_S0_EE"
 "_ZN4arma10glue_times5applyINS_3ColIdEENS_2OpIS3_NS_9op_htransEEEEEvRNS_3MatINT_9elem_typeEEERKNS_4GlueIS8_T0_S0_EE"
 "_ZN4arma10glue_times5applyINS_4GlueINS_11subview_rowIdEENS_3MatIdEES0_EENS_2OpIS4_NS_9op_htransEEEEEvRNS5_INT_9elem_typeEEERKNS2_ISB_T0_S0_EE"
 "_ZN4arma10glue_times5applyINS_4GlueINS_3MatIdEES4_S0_EENS_2OpIS4_NS_9op_htransEEEEEvRNS3_INT_9elem_typeEEERKNS2_IS9_T0_S0_EE"
 "_ZN4arma10glue_times5applyINS_5eGlueINS_11subview_colIdEENS_3eOpIS4_NS_16eop_scalar_timesEEENS_11eglue_minusEEENS_2OpIS9_NS_9op_htransEEEEEvRNS_3MatINT_9elem_typeEEERKNS_4GlueISE_T0_S0_EE"
 "_ZN4arma10glue_times5applyINS_5eGlueINS_2OpINS_11subview_rowIdEENS_9op_htransEEENS3_IS5_NS_10op_htrans2EEENS_11eglue_minusEEENS3_ISB_S6_EEEEvRNS_3MatINT_9elem_typeEEERKNS_4GlueISE_T0_S0_EE"
 "_ZN4arma11distr_paramC1Edd"
 "_ZN4arma11distr_paramC1Eii"
 "_ZN4arma11eglue_minus4textEv"
 "_ZN4arma11find_uniqueINS_3ColIdEEEENS_10enable_if2IXsrNS_12is_arma_typeIT_EE5valueEKNS_4mtOpIjS5_NS_14op_find_uniqueEEEE6resultERKS5_b"
 "_ZN4arma11subview_colIdEaSEd"
 "_ZN4arma11subview_colIdEaSINS_5eGlueINS_2OpINS_11subview_rowIdEENS_9op_htransEEENS4_IS6_NS_10op_htrans2EEENS_11eglue_minusEEEEEvRKNS_4BaseIdT_EE"
 "_ZN4arma11subview_colIdEaSINS_5eGlueIS1_NS_3eOpIS1_NS_16eop_scalar_timesEEENS_11eglue_minusEEEEEvRKNS_4BaseIdT_EE"
 "_ZN4arma11subview_colIdEC1ERKNS_3MatIdEEj"
 "_ZN4arma11subview_colIdEC1ERKNS_3MatIdEEjjj"
 "_ZN4arma11subview_colIdED1Ev"
 "_ZN4arma11subview_rowIdE3endEv"
 "_ZN4arma11subview_rowIdE4colsEjj"
 "_ZN4arma11subview_rowIdE5beginEv"
 "_ZN4arma11subview_rowIdEaSERKS1_"
 "_ZN4arma11subview_rowIdEaSINS_2OpINS_3ColIdEENS_9op_htransEEEEEvRKNS_4BaseIdT_EE"
 "_ZN4arma11subview_rowIdEC1ERKNS_3MatIdEEj"
 "_ZN4arma11subview_rowIdEC1ERKNS_3MatIdEEjjj"
 "_ZN4arma11subview_rowIdED1Ev"
 "_ZN4arma11syrk_helper35inplace_copy_upper_tri_to_lower_triIdEEvRNS_3MatIT_EE"
 "_ZN4arma11unwrap_cubeINS_4CubeIdEEEC1ERKS2_"
 "_ZN4arma12arma_rng_alt10randi_fillIiEEvPT_jii"
 "_ZN4arma12arma_rng_alt13randi_max_valEv"
 "_ZN4arma12arma_rng_alt9randn_valEv"
 "_ZN4arma12quasi_unwrapINS_3ColIdEEEC1ERKS2_"
 "_ZN4arma12quasi_unwrapINS_3eOpINS_3ColIdEENS_19eop_scalar_div_postEEEEC1ERKS5_"
 "_ZN4arma12quasi_unwrapINS_3eOpINS_3ColIdEENS_19eop_scalar_div_postEEEED1Ev"
 "_ZN4arma12quasi_unwrapINS_3MatIdEEEC1ERKS2_"
 "_ZN4arma12quasi_unwrapINS_3MatIjEEEC1ERKS2_"
 "_ZN4arma12subview_colsIdEC1ERKNS_3MatIdEEjj"
 "_ZN4arma12subview_colsIdED1Ev"
 "_ZN4arma12subview_cubeIdE7extractERNS_4CubeIdEERKS1_"
 "_ZN4arma12subview_cubeIdED1Ev"
 "_ZN4arma12unwrap_checkINS_3MatIdEEEC1ERKS2_b"
 "_ZN4arma12unwrap_checkINS_3MatIdEEED1Ev"
 "_ZN4arma12unwrap_checkINS_5eGlueINS_11subview_colIdEENS_3eOpIS3_NS_16eop_scalar_timesEEENS_11eglue_minusEEEEC1ERKS8_b"
 "_ZN4arma12unwrap_checkINS_5eGlueINS_11subview_colIdEENS_3eOpIS3_NS_16eop_scalar_timesEEENS_11eglue_minusEEEED1Ev"
 "_ZN4arma12unwrap_checkINS_5eGlueINS_2OpINS_11subview_rowIdEENS_9op_htransEEENS2_IS4_NS_10op_htrans2EEENS_11eglue_minusEEEEC1ERKSA_b"
 "_ZN4arma12unwrap_checkINS_5eGlueINS_2OpINS_11subview_rowIdEENS_9op_htransEEENS2_IS4_NS_10op_htrans2EEENS_11eglue_minusEEEED1Ev"
 "_ZN4arma13diagmat_proxyINS_3MatIdEEEC1ERKS2_"
 "_ZN4arma13op_cumsum_vec5applyINS_3ColIdEEEEvRNS_3MatINT_9elem_typeEEERKNS_2OpIS5_S0_EE"
 "_ZN4arma13op_cumsum_vec5applyINS_3eOpINS_3ColIdEENS_19eop_scalar_div_postEEEEEvRNS_3MatINT_9elem_typeEEERKNS_2OpIS8_S0_EE"
 "_ZN4arma13subview_elem1IdNS_4mtOpIjNS1_IjNS_2OpINS_11subview_rowIdEENS_9op_htransEEENS_9op_rel_eqEEENS_14op_find_simpleEEEED1Ev"
 "_ZN4arma13subview_elem1IdNS_4mtOpIjNS1_IjNS_3ColIdEENS_9op_rel_eqEEENS_14op_find_simpleEEEE10inplace_opINS_15op_internal_equEEEvd"
 "_ZN4arma13subview_elem1IdNS_4mtOpIjNS1_IjNS_3ColIdEENS_9op_rel_eqEEENS_14op_find_simpleEEEE4fillEd"
 "_ZN4arma13subview_elem1IdNS_4mtOpIjNS1_IjNS_3ColIdEENS_9op_rel_eqEEENS_14op_find_simpleEEEE7extractERNS_3MatIdEERKS8_"
 "_ZN4arma13subview_elem1IdNS_4mtOpIjNS1_IjNS_3ColIdEENS_9op_rel_eqEEENS_14op_find_simpleEEEED1Ev"
 "_ZN4arma13subview_elem2IdNS_3MatIjEES2_E7extractERNS1_IdEERKS3_"
 "_ZN4arma13subview_elem2IdNS_3MatIjEES2_ED1Ev"
 "_ZN4arma13trimat_helper7is_trilIdEEbRKNS_3MatIT_EE"
 "_ZN4arma13trimat_helper7is_triuIdEEbRKNS_3MatIT_EE"
 "_ZN4arma14op_find_simple5applyINS_4mtOpIjNS_11subview_rowIdEENS_9op_rel_eqEEEEEvRNS_3MatIjEERKNS2_IjT_S0_EE"
 "_ZN4arma14op_find_simple5applyINS_4mtOpIjNS_2OpINS_11subview_rowIdEENS_9op_htransEEENS_9op_rel_eqEEEEEvRNS_3MatIjEERKNS2_IjT_S0_EE"
 "_ZN4arma14op_find_simple5applyINS_4mtOpIjNS_3ColIdEENS_9op_rel_eqEEEEEvRNS_3MatIjEERKNS2_IjT_S0_EE"
 "_ZN4arma14op_find_unique12apply_helperINS_3ColIdEEEEbRNS_3MatIjEERKNS_5ProxyIT_EEb"
 "_ZN4arma14op_find_unique5applyINS_3ColIdEEEEvRNS_3MatIjEERKNS_4mtOpIjT_S0_EE"
 "_ZN4arma14partial_unwrapINS_11subview_colIdEEEC1ERKS2_"
 "_ZN4arma14partial_unwrapINS_11subview_colIdEEED1Ev"
 "_ZN4arma14partial_unwrapINS_11subview_rowIdEEEC1ERKS2_"
 "_ZN4arma14partial_unwrapINS_11subview_rowIdEEED1Ev"
 "_ZN4arma14partial_unwrapINS_12subview_colsIdEEEC1ERKS2_"
 "_ZN4arma14partial_unwrapINS_12subview_colsIdEEED1Ev"
 "_ZN4arma14partial_unwrapINS_2OpINS_11subview_colIdEENS_9op_htransEEEEC1ERKS5_"
 "_ZN4arma14partial_unwrapINS_2OpINS_11subview_colIdEENS_9op_htransEEEED1Ev"
 "_ZN4arma14partial_unwrapINS_2OpINS_11subview_rowIdEENS_9op_htransEEEEC1ERKS5_"
 "_ZN4arma14partial_unwrapINS_2OpINS_11subview_rowIdEENS_9op_htransEEEED1Ev"
 "_ZN4arma14partial_unwrapINS_2OpINS_3ColIdEENS_9op_htransEEEEC1ERKS5_"
 "_ZN4arma14partial_unwrapINS_2OpINS_3MatIdEENS_9op_htransEEEEC1ERKS5_"
 "_ZN4arma14partial_unwrapINS_2OpINS_5eGlueINS_11subview_colIdEENS_3eOpIS4_NS_16eop_scalar_timesEEENS_11eglue_minusEEENS_9op_htransEEEEC1ERKSB_"
 "_ZN4arma14partial_unwrapINS_2OpINS_5eGlueINS_11subview_colIdEENS_3eOpIS4_NS_16eop_scalar_timesEEENS_11eglue_minusEEENS_9op_htransEEEED1Ev"
 "_ZN4arma14partial_unwrapINS_2OpINS_5eGlueINS1_INS_11subview_rowIdEENS_9op_htransEEENS1_IS4_NS_10op_htrans2EEENS_11eglue_minusEEES5_EEEC1ERKSB_"
 "_ZN4arma14partial_unwrapINS_2OpINS_5eGlueINS1_INS_11subview_rowIdEENS_9op_htransEEENS1_IS4_NS_10op_htrans2EEENS_11eglue_minusEEES5_EEED1Ev"
 "_ZN4arma14partial_unwrapINS_3ColIdEEEC1ERKS2_"
 "_ZN4arma14partial_unwrapINS_3MatIdEEEC1ERKS2_"
 "_ZN4arma14partial_unwrapINS_5eGlueINS_11subview_colIdEENS_3eOpIS3_NS_16eop_scalar_timesEEENS_11eglue_minusEEEEC1ERKS8_"
 "_ZN4arma14partial_unwrapINS_5eGlueINS_11subview_colIdEENS_3eOpIS3_NS_16eop_scalar_timesEEENS_11eglue_minusEEEED1Ev"
 "_ZN4arma14partial_unwrapINS_5eGlueINS_2OpINS_11subview_rowIdEENS_9op_htransEEENS2_IS4_NS_10op_htrans2EEENS_11eglue_minusEEEEC1ERKSA_"
 "_ZN4arma14partial_unwrapINS_5eGlueINS_2OpINS_11subview_rowIdEENS_9op_htransEEENS2_IS4_NS_10op_htrans2EEENS_11eglue_minusEEEED1Ev"
 "_ZN4arma15get_cerr_streamEv"
 "_ZN4arma16as_scalar_errmsg20incompat_size_stringB5cxx11Ejj"
 "_ZN4arma16gemm_emul_tinysqILb0ELb0ELb0EE5applyIdNS_3ColIdEENS_3MatIdEEEEvRNS5_IT_EERKT0_RKT1_S7_S7_"
 "_ZN4arma16gemm_emul_tinysqILb0ELb0ELb0EE5applyIdNS_3MatIdEES4_EEvRNS3_IT_EERKT0_RKT1_S5_S5_"
 "_ZN4arma16gemm_emul_tinysqILb1ELb0ELb0EE5applyIdNS_3RowIdEES4_EEvRNS_3MatIT_EERKT0_RKT1_S6_S6_"
 "_ZN4arma16gemv_emul_tinysqILb0ELb0ELb0EE5applyIdNS_3ColIdEEEEvPT_RKT0_PKS5_S5_S5_"
 "_ZN4arma16gemv_emul_tinysqILb0ELb0ELb0EE5applyIdNS_3MatIdEEEEvPT_RKT0_PKS5_S5_S5_"
 "_ZN4arma16gemv_emul_tinysqILb0ELb0ELb0EE5applyIdNS_3RowIdEEEEvPT_RKT0_PKS5_S5_S5_"
 "_ZN4arma16gemv_emul_tinysqILb1ELb0ELb0EE5applyIdNS_3MatIdEEEEvPT_RKT0_PKS5_S5_S5_"
 "_ZN4arma16gemv_emul_tinysqILb1ELb0ELb0EE5applyIdNS_3RowIdEEEEvPT_RKT0_PKS5_S5_S5_"
 "_ZN4arma17accu_proxy_linearINS_11subview_rowIdEEEENT_9elem_typeERKNS_5ProxyIS3_EE"
 "_ZN4arma17accu_proxy_linearINS_13subview_elem1IdNS_4mtOpIjNS2_IjNS_2OpINS_11subview_rowIdEENS_9op_htransEEENS_9op_rel_eqEEENS_14op_find_simpleEEEEEEENT_9elem_typeERKNS_5ProxyISD_EE"
 "_ZN4arma17accu_proxy_linearINS_13subview_elem1IdNS_4mtOpIjNS2_IjNS_3ColIdEENS_9op_rel_eqEEENS_14op_find_simpleEEEEEEENT_9elem_typeERKNS_5ProxyISA_EE"
 "_ZN4arma17accu_proxy_linearINS_3eOpINS_3ColIdEENS_7eop_logEEEEENT_9elem_typeERKNS_5ProxyIS6_EE"
 "_ZN4arma17accu_proxy_linearINS_3eOpINS1_INS_3ColIdEENS_21eop_scalar_minus_postEEENS_7eop_expEEEEENT_9elem_typeERKNS_5ProxyIS8_EE"
 "_ZN4arma17accu_proxy_linearINS_5eGlueINS_3eOpINS2_INS2_INS_3ColIdEENS_7eop_negEEENS_15eop_scalar_plusEEENS_7eop_logEEESA_NS_11eglue_minusEEEEENT_9elem_typeERKNS_5ProxyISD_EE"
 "_ZN4arma17arma_check_boundsIA30_cEEvbRKT_"
 "_ZN4arma17arma_check_boundsIA32_cEEvbRKT_"
 "_ZN4arma17arma_check_boundsIA33_cEEvbRKT_"
 "_ZN4arma17arma_check_boundsIA35_cEEvbRKT_"
 "_ZN4arma17arma_check_boundsIA36_cEEvbRKT_"
 "_ZN4arma17arma_check_boundsIA37_cEEvbRKT_"
 "_ZN4arma17arma_check_boundsIA38_cEEvbRKT_"
 "_ZN4arma17arma_check_boundsIA46_cEEvbRKT_"
 "_ZN4arma17arma_check_boundsIA55_cEEvbRKT_"
 "_ZN4arma17arma_check_boundsIA57_cEEvbRKT_"
 "_ZN4arma17arma_check_boundsIA58_cEEvbRKT_"
 "_ZN4arma17arma_check_boundsIA59_cEEvbRKT_"
 "_ZN4arma17arma_check_boundsIA63_cEEvbRKT_"
 "_ZN4arma17arma_check_boundsINSt7__cxx1112basic_stringIcSt11char_traitsIcESaIcEEEEEvbRKT_"
 "_ZN4arma18subview_row_stransIdEC1ERKNS_11subview_rowIdEE"
 "_ZN4arma18unwrap_check_mixedINS_3MatIjEEEC1IdEERKS2_RKNS1_IT_EE"
 "_ZN4arma18unwrap_check_mixedINS_3MatIjEEED1Ev"
 "_ZN4arma18unwrap_check_mixedINS_4mtOpIjNS1_IjNS_3ColIdEENS_9op_rel_eqEEENS_14op_find_simpleEEEEC1IdEERKS7_RKNS_3MatIT_EE"
 "_ZN4arma18unwrap_check_mixedINS_4mtOpIjNS1_IjNS_3ColIdEENS_9op_rel_eqEEENS_14op_find_simpleEEEED1Ev"
 "_ZN4arma19glue_times_redirectILj2EE5applyINS_11subview_colIdEENS_2OpIS4_NS_9op_htransEEEEEvRNS_3MatINT_9elem_typeEEERKNS_4GlueIS9_T0_NS_10glue_timesEEE"
 "_ZN4arma19glue_times_redirectILj2EE5applyINS_12subview_colsIdEENS_2OpINS_11subview_rowIdEENS_9op_htransEEEEEvRNS_3MatINT_9elem_typeEEERKNS_4GlueISB_T0_NS_10glue_timesEEE"
 "_ZN4arma19glue_times_redirectILj2EE5applyINS_2OpINS_11subview_rowIdEENS_9op_htransEEES5_EEvRNS_3MatINT_9elem_typeEEERKNS_4GlueIS9_T0_NS_10glue_timesEEE"
 "_ZN4arma19glue_times_redirectILj2EE5applyINS_3ColIdEENS_2OpIS4_NS_9op_htransEEEEEvRNS_3MatINT_9elem_typeEEERKNS_4GlueIS9_T0_NS_10glue_timesEEE"
 "_ZN4arma19glue_times_redirectILj2EE5applyINS_5eGlueINS_11subview_colIdEENS_3eOpIS5_NS_16eop_scalar_timesEEENS_11eglue_minusEEENS_2OpISA_NS_9op_htransEEEEEvRNS_3MatINT_9elem_typeEEERKNS_4GlueISF_T0_NS_10glue_timesEEE"
 "_ZN4arma19glue_times_redirectILj2EE5applyINS_5eGlueINS_2OpINS_11subview_rowIdEENS_9op_htransEEENS4_IS6_NS_10op_htrans2EEENS_11eglue_minusEEENS4_ISC_S7_EEEEvRNS_3MatINT_9elem_typeEEERKNS_4GlueISF_T0_NS_10glue_timesEEE"
 "_ZN4arma19glue_times_redirectILj3EE5applyINS_11subview_rowIdEENS_3MatIdEENS_2OpIS4_NS_9op_htransEEEEEvRNS5_INT_9elem_typeEEERKNS_4GlueINSE_ISA_T0_NS_10glue_timesEEET1_SG_EE"
 "_ZN4arma19glue_times_redirectILj3EE5applyINS_3MatIdEES4_NS_2OpIS4_NS_9op_htransEEEEEvRNS3_INT_9elem_typeEEERKNS_4GlueINSC_IS8_T0_NS_10glue_timesEEET1_SE_EE"
 "_ZN4arma19Proxy_xtrans_vectorINS_2OpINS_3ColIdEENS_9op_htransEEEEC2ERKS5_"
 "_ZN4arma19Proxy_xtrans_vectorINS_2OpINS_3ColIdEENS_9op_htransEEEED2Ev"
 "_ZN4arma19subview_cube_slicesIdNS_3MatIjEEE7extractERNS_4CubeIdEERKS3_"
 "_ZN4arma19subview_cube_slicesIdNS_3MatIjEEED1Ev"
 "_ZN4arma20arma_check_bad_allocIA34_cEEvbRKT_"
 "_ZN4arma20arma_check_bad_allocIA35_cEEvbRKT_"
 "_ZN4arma20arma_check_bad_allocIA39_cEEvbRKT_"
 "_ZN4arma20quasi_unwrap_defaultINS_3eOpINS_3ColIdEENS_19eop_scalar_div_postEEEEC2ERKS5_"
 "_ZN4arma20quasi_unwrap_defaultINS_3eOpINS_3ColIdEENS_19eop_scalar_div_postEEEED2Ev"
 "_ZN4arma20unwrap_check_defaultINS_5eGlueINS_11subview_colIdEENS_3eOpIS3_NS_16eop_scalar_timesEEENS_11eglue_minusEEEEC2ERKS8_b"
 "_ZN4arma20unwrap_check_defaultINS_5eGlueINS_11subview_colIdEENS_3eOpIS3_NS_16eop_scalar_timesEEENS_11eglue_minusEEEED2Ev"
 "_ZN4arma20unwrap_check_defaultINS_5eGlueINS_2OpINS_11subview_rowIdEENS_9op_htransEEENS2_IS4_NS_10op_htrans2EEENS_11eglue_minusEEEEC2ERKSA_b"
 "_ZN4arma20unwrap_check_defaultINS_5eGlueINS_2OpINS_11subview_rowIdEENS_9op_htransEEENS2_IS4_NS_10op_htrans2EEENS_11eglue_minusEEEED2Ev"
 "_ZN4arma21arma_assert_blas_sizeINS_3ColIdEEEEvRKT_"
 "_ZN4arma21arma_assert_blas_sizeINS_3ColIdEES2_EEvRKT_RKT0_"
 "_ZN4arma21arma_assert_blas_sizeINS_3MatIdEEEEvRKT_"
 "_ZN4arma21arma_assert_blas_sizeINS_3MatIdEES2_EEvRKT_RKT0_"
 "_ZN4arma21arma_assert_blas_sizeINS_3RowIdEEEEvRKT_"
 "_ZN4arma21arma_assert_blas_sizeINS_3RowIdEES2_EEvRKT_RKT0_"
 "_ZN4arma21arma_assert_same_sizeIddEEvRKNS_7subviewIT_EERKNS1_IT0_EEPKc"
 "_ZN4arma21arma_assert_same_sizeIdNS_2OpINS_3ColIdEENS_9op_htransEEEEEvRKNS_7subviewIT_EERKNS_5ProxyIT0_EEPKc"
 "_ZN4arma21arma_assert_same_sizeIdNS_3MatIdEEEEvRKNS_7subviewIT_EERKNS_5ProxyIT0_EEPKc"
 "_ZN4arma21arma_assert_same_sizeIdNS_5eGlueINS_11subview_colIdEENS_3eOpIS3_NS_16eop_scalar_timesEEENS_11eglue_minusEEEEEvRKNS_7subviewIT_EERKNS_5ProxyIT0_EEPKc"
 "_ZN4arma21arma_assert_same_sizeIdNS_5eGlueINS_2OpINS_11subview_rowIdEENS_9op_htransEEENS2_IS4_NS_10op_htrans2EEENS_11eglue_minusEEEEEvRKNS_7subviewIT_EERKNS_5ProxyIT0_EEPKc"
 "_ZN4arma21arma_assert_same_sizeINS_11subview_colIdEES2_EEvRKNS_5ProxyIT_EERKNS3_IT0_EEPKc"
 "_ZN4arma22partial_unwrap_defaultINS_5eGlueINS_11subview_colIdEENS_3eOpIS3_NS_16eop_scalar_timesEEENS_11eglue_minusEEEEC2ERKS8_"
 "_ZN4arma22partial_unwrap_defaultINS_5eGlueINS_11subview_colIdEENS_3eOpIS3_NS_16eop_scalar_timesEEENS_11eglue_minusEEEED2Ev"
 "_ZN4arma22partial_unwrap_defaultINS_5eGlueINS_2OpINS_11subview_rowIdEENS_9op_htransEEENS2_IS4_NS_10op_htrans2EEENS_11eglue_minusEEEEC2ERKSA_"
 "_ZN4arma22partial_unwrap_defaultINS_5eGlueINS_2OpINS_11subview_rowIdEENS_9op_htransEEENS2_IS4_NS_10op_htrans2EEENS_11eglue_minusEEEED2Ev"
 "_ZN4arma23arma_assert_cube_as_matIdNS_4CubeIdEEEEvRKNS_3MatIT_EERKT0_PKcb"
 "_ZN4arma26arma_assert_trans_mul_sizeILb0ELb0EEEvjjjjPKc"
 "_ZN4arma26arma_assert_trans_mul_sizeILb0ELb1EEEvjjjjPKc"
 "_ZN4arma26arma_assert_trans_mul_sizeILb1ELb0EEEvjjjjPKc"
 "_ZN4arma27glue_times_redirect2_helperILb0EE5applyINS_11subview_colIdEENS_2OpIS4_NS_9op_htransEEEEEvRNS_3MatINT_9elem_typeEEERKNS_4GlueIS9_T0_NS_10glue_timesEEE"
 "_ZN4arma27glue_times_redirect2_helperILb0EE5applyINS_12subview_colsIdEENS_2OpINS_11subview_rowIdEENS_9op_htransEEEEEvRNS_3MatINT_9elem_typeEEERKNS_4GlueISB_T0_NS_10glue_timesEEE"
 "_ZN4arma27glue_times_redirect2_helperILb0EE5applyINS_2OpINS_11subview_rowIdEENS_9op_htransEEES5_EEvRNS_3MatINT_9elem_typeEEERKNS_4GlueIS9_T0_NS_10glue_timesEEE"
 "_ZN4arma27glue_times_redirect2_helperILb0EE5applyINS_3ColIdEENS_2OpIS4_NS_9op_htransEEEEEvRNS_3MatINT_9elem_typeEEERKNS_4GlueIS9_T0_NS_10glue_timesEEE"
 "_ZN4arma27glue_times_redirect2_helperILb0EE5applyINS_5eGlueINS_11subview_colIdEENS_3eOpIS5_NS_16eop_scalar_timesEEENS_11eglue_minusEEENS_2OpISA_NS_9op_htransEEEEEvRNS_3MatINT_9elem_typeEEERKNS_4GlueISF_T0_NS_10glue_timesEEE"
 "_ZN4arma27glue_times_redirect2_helperILb0EE5applyINS_5eGlueINS_2OpINS_11subview_rowIdEENS_9op_htransEEENS4_IS6_NS_10op_htrans2EEENS_11eglue_minusEEENS4_ISC_S7_EEEEvRNS_3MatINT_9elem_typeEEERKNS_4GlueISF_T0_NS_10glue_timesEEE"
 "_ZN4arma27glue_times_redirect2_helperILb1EE5applyINS_11subview_colIdEENS_2OpIS4_NS_9op_htransEEEEEvRNS_3MatINT_9elem_typeEEERKNS_4GlueIS9_T0_NS_10glue_timesEEE"
 "_ZN4arma27glue_times_redirect2_helperILb1EE5applyINS_12subview_colsIdEENS_2OpINS_11subview_rowIdEENS_9op_htransEEEEEvRNS_3MatINT_9elem_typeEEERKNS_4GlueISB_T0_NS_10glue_timesEEE"
 "_ZN4arma27glue_times_redirect2_helperILb1EE5applyINS_2OpINS_11subview_rowIdEENS_9op_htransEEES5_EEvRNS_3MatINT_9elem_typeEEERKNS_4GlueIS9_T0_NS_10glue_timesEEE"
 "_ZN4arma27glue_times_redirect2_helperILb1EE5applyINS_3ColIdEENS_2OpIS4_NS_9op_htransEEEEEvRNS_3MatINT_9elem_typeEEERKNS_4GlueIS9_T0_NS_10glue_timesEEE"
 "_ZN4arma27glue_times_redirect2_helperILb1EE5applyINS_5eGlueINS_11subview_colIdEENS_3eOpIS5_NS_16eop_scalar_timesEEENS_11eglue_minusEEENS_2OpISA_NS_9op_htransEEEEEvRNS_3MatINT_9elem_typeEEERKNS_4GlueISF_T0_NS_10glue_timesEEE"
 "_ZN4arma27glue_times_redirect2_helperILb1EE5applyINS_5eGlueINS_2OpINS_11subview_rowIdEENS_9op_htransEEENS4_IS6_NS_10op_htrans2EEENS_11eglue_minusEEENS4_ISC_S7_EEEEvRNS_3MatINT_9elem_typeEEERKNS_4GlueISF_T0_NS_10glue_timesEEE"
 "_ZN4arma27glue_times_redirect3_helperILb0EE5applyINS_11subview_rowIdEENS_3MatIdEENS_2OpIS4_NS_9op_htransEEEEEvRNS5_INT_9elem_typeEEERKNS_4GlueINSE_ISA_T0_NS_10glue_timesEEET1_SG_EE"
 "_ZN4arma27glue_times_redirect3_helperILb0EE5applyINS_3MatIdEES4_NS_2OpIS4_NS_9op_htransEEEEEvRNS3_INT_9elem_typeEEERKNS_4GlueINSC_IS8_T0_NS_10glue_timesEEET1_SE_EE"
 "_ZN4arma27glue_times_redirect3_helperILb1EE5applyINS_11subview_rowIdEENS_3MatIdEENS_2OpIS4_NS_9op_htransEEEEEvRNS5_INT_9elem_typeEEERKNS_4GlueINSE_ISA_T0_NS_10glue_timesEEET1_SG_EE"
 "_ZN4arma27glue_times_redirect3_helperILb1EE5applyINS_3MatIdEES4_NS_2OpIS4_NS_9op_htransEEEEEvRNS3_INT_9elem_typeEEERKNS_4GlueINSC_IS8_T0_NS_10glue_timesEEET1_SE_EE"
 "_ZN4arma29partial_unwrap_htrans_defaultINS_5eGlueINS_11subview_colIdEENS_3eOpIS3_NS_16eop_scalar_timesEEENS_11eglue_minusEEEEC2ERKNS_2OpIS8_NS_9op_htransEEE"
 "_ZN4arma29partial_unwrap_htrans_defaultINS_5eGlueINS_11subview_colIdEENS_3eOpIS3_NS_16eop_scalar_timesEEENS_11eglue_minusEEEED2Ev"
 "_ZN4arma29partial_unwrap_htrans_defaultINS_5eGlueINS_2OpINS_11subview_rowIdEENS_9op_htransEEENS2_IS4_NS_10op_htrans2EEENS_11eglue_minusEEEEC2ERKNS2_ISA_S5_EE"
 "_ZN4arma29partial_unwrap_htrans_defaultINS_5eGlueINS_2OpINS_11subview_rowIdEENS_9op_htransEEENS2_IS4_NS_10op_htrans2EEENS_11eglue_minusEEEED2Ev"
 "_ZN4arma2OpINS_11subview_colIdEENS_9op_htransEEC1ERKS2_"
 "_ZN4arma2OpINS_11subview_colIdEENS_9op_htransEED1Ev"
 "_ZN4arma2OpINS_11subview_rowIdEENS_10op_htrans2EEC1ERKS2_d"
 "_ZN4arma2OpINS_11subview_rowIdEENS_10op_htrans2EED1Ev"
 "_ZN4arma2OpINS_11subview_rowIdEENS_9op_htransEEC1ERKS2_"
 "_ZN4arma2OpINS_11subview_rowIdEENS_9op_htransEED1Ev"
 "_ZN4arma2OpINS_3ColIdEENS_13op_cumsum_vecEEC1ERKS2_"
 "_ZN4arma2OpINS_3ColIdEENS_13op_cumsum_vecEED1Ev"
 "_ZN4arma2OpINS_3ColIdEENS_9op_htransEEC1ERKS2_"
 "_ZN4arma2OpINS_3ColIdEENS_9op_htransEED1Ev"
 "_ZN4arma2OpINS_3eOpINS_3ColIdEENS_19eop_scalar_div_postEEENS_13op_cumsum_vecEEC1ERKS5_"
 "_ZN4arma2OpINS_3eOpINS_3ColIdEENS_19eop_scalar_div_postEEENS_13op_cumsum_vecEED1Ev"
 "_ZN4arma2OpINS_3MatIdEENS_6op_sumEEC1ERKS2_jj"
 "_ZN4arma2OpINS_3MatIdEENS_6op_sumEED1Ev"
 "_ZN4arma2OpINS_3MatIdEENS_9op_htransEEC1ERKS2_"
 "_ZN4arma2OpINS_3MatIdEENS_9op_htransEED1Ev"
 "_ZN4arma2OpINS_5eGlueINS_11subview_colIdEENS_3eOpIS3_NS_16eop_scalar_timesEEENS_11eglue_minusEEENS_9op_htransEEC1ERKS8_"
 "_ZN4arma2OpINS_5eGlueINS_11subview_colIdEENS_3eOpIS3_NS_16eop_scalar_timesEEENS_11eglue_minusEEENS_9op_htransEED1Ev"
 "_ZN4arma2OpINS_5eGlueINS0_INS_11subview_rowIdEENS_9op_htransEEENS0_IS3_NS_10op_htrans2EEENS_11eglue_minusEEES4_EC1ERKS9_"
 "_ZN4arma2OpINS_5eGlueINS0_INS_11subview_rowIdEENS_9op_htransEEENS0_IS3_NS_10op_htrans2EEENS_11eglue_minusEEES4_ED1Ev"
 "_ZN4arma31internal_regspace_default_deltaIdEEvRNS_3MatIT_EENS3_8pod_typeES5_"
 "_ZN4arma31Proxy_subview_row_htrans_non_cxIdEC2ERKNS_2OpINS_11subview_rowIdEENS_9op_htransEEE"
 "_ZN4arma3ColIdEaSEOS1_"
 "_ZN4arma3ColIdEaSERKS1_"
 "_ZN4arma3ColIdEaSINS_2OpINS_11subview_rowIdEENS_9op_htransEEEEERS1_RKNS_4BaseIdT_EE"
 "_ZN4arma3ColIdEaSINS_2OpIS1_NS_13op_cumsum_vecEEEEERS1_RKNS_4BaseIdT_EE"
 "_ZN4arma3ColIdEaSINS_3eOpINS_5eGlueINS3_IS1_NS_16eop_scalar_timesEEENS_11subview_colIdEENS_10eglue_plusEEES5_EEEERS1_RKNS_4BaseIdT_EE"
 "_ZN4arma3ColIdEaSINS_3eOpINS_5eGlueINS3_IS1_NS_16eop_scalar_timesEEENS_2OpINS_11subview_rowIdEENS_9op_htransEEENS_10eglue_plusEEES5_EEEERS1_RKNS_4BaseIdT_EE"
 "_ZN4arma3ColIdEaSINS_3eOpINS_5eGlueINS4_INS3_IS1_NS_16eop_scalar_timesEEENS_11subview_colIdEENS_10eglue_plusEEENS3_INS_2OpINS_3MatIdEENS_6op_sumEEES5_EES9_EES5_EEEERS1_RKNS_4BaseIdT_EE"
 "_ZN4arma3ColIdEaSINS_3eOpINS_5eGlueINS4_INS3_IS1_NS_16eop_scalar_timesEEENS_2OpINS_11subview_rowIdEENS_9op_htransEEENS_10eglue_plusEEENS3_INS7_INS_3MatIdEENS_6op_sumEEES5_EESC_EES5_EEEERS1_RKNS_4BaseIdT_EE"
 "_ZN4arma3ColIdEaSINS_3eOpIS1_NS_19eop_scalar_div_postEEEEERS1_RKNS_4BaseIdT_EE"
 "_ZN4arma3ColIdEaSINS_3eOpIS1_NS_7eop_logEEEEERS1_RKNS_4BaseIdT_EE"
 "_ZN4arma3ColIdEaSINS_5eGlueIS1_S1_NS_11eglue_minusEEEEERS1_RKNS_4BaseIdT_EE"
 "_ZN4arma3ColIdEaSINS_7subviewIdEEEERS1_RKNS_4BaseIdT_EE"
 "_ZN4arma3ColIdEC1Ej"
 "_ZN4arma3ColIdEC1EPdjbb"
 "_ZN4arma3ColIdEC1ERKS1_"
 "_ZN4arma3ColIdEC1Ev"
 "_ZN4arma3ColIdEC1ILb0EEEjjRKNS_23arma_initmode_indicatorIXT_EEE"
 "_ZN4arma3ColIdEC1INS_13subview_elem1IdNS_4mtOpIjNS4_IjS1_NS_9op_rel_eqEEENS_14op_find_simpleEEEEEEERKNS_4BaseIdT_EE"
 "_ZN4arma3ColIdEC1INS_2OpINS_11subview_rowIdEENS_9op_htransEEEEERKNS_4BaseIdT_EE"
 "_ZN4arma3ColIdEC1INS_2OpINS_3eOpIS1_NS_19eop_scalar_div_postEEENS_13op_cumsum_vecEEEEERKNS_4BaseIdT_EE"
 "_ZN4arma3ColIdEC1INS_2OpIS1_NS_13op_cumsum_vecEEEEERKNS_4BaseIdT_EE"
 "_ZN4arma3ColIdEC1INS_3eOpINS_5eGlueIS1_S1_NS_11eglue_minusEEENS_21eop_scalar_minus_postEEEEERKNS_4BaseIdT_EE"
 "_ZN4arma3ColIdEC1INS_3eOpIS1_NS_21eop_scalar_minus_postEEEEERKNS_4BaseIdT_EE"
 "_ZN4arma3ColIdEC1INS_4fill10fill_zerosEEEjRKNS3_10fill_classIT_EE"
 "_ZN4arma3ColIdEC1INS_5eGlueINS_4GlueINS_12subview_colsIdEENS_2OpINS_11subview_rowIdEENS_9op_htransEEENS_10glue_timesEEENS_11subview_colIdEENS_11eglue_minusEEEEERKNS_4BaseIdT_EE"
 "_ZN4arma3ColIdEC1INS_5eGlueIS1_S1_NS_11eglue_minusEEEEERKNS_4BaseIdT_EE"
 "_ZN4arma3ColIdEC1INS_7subviewIdEEEERKNS_4BaseIdT_EE"
 "_ZN4arma3ColIdED1Ev"
 "_ZN4arma3ColIiEC1ILb0EEEjjRKNS_23arma_initmode_indicatorIXT_EEE"
 "_ZN4arma3ColIiED1Ev"
 "_ZN4arma3ColIjEC1ILb0EEEjRKNS_23arma_initmode_indicatorIXT_EEE"
 "_ZN4arma3ColIjEC1INS_4mtOpIjNS0_IdEENS_14op_find_uniqueEEEEERKNS_4BaseIjT_EE"
 "_ZN4arma3ColIjEC1INS_4mtOpIjNS3_IjNS0_IdEENS_9op_rel_eqEEENS_14op_find_simpleEEEEERKNS_4BaseIjT_EE"
 "_ZN4arma3ColIjED1Ev"
 "_ZN4arma3detINS_3MatIdEEEENS_10enable_if2IXsrNS_22is_supported_blas_typeINT_9elem_typeEEE5valueES6_E6resultERKNS_4BaseIS6_S5_EE"
 "_ZN4arma3eOpINS_11subview_colIdEENS_16eop_scalar_timesEEC1ERKS2_d"
 "_ZN4arma3eOpINS_11subview_colIdEENS_16eop_scalar_timesEED1Ev"
 "_ZN4arma3eOpINS_2OpINS_11subview_rowIdEENS_9op_htransEEENS_16eop_scalar_timesEEC1ERKS5_d"
 "_ZN4arma3eOpINS_2OpINS_11subview_rowIdEENS_9op_htransEEENS_16eop_scalar_timesEED1Ev"
 "_ZN4arma3eOpINS_2OpINS_3MatIdEENS_6op_sumEEENS_16eop_scalar_timesEEC1ERKS5_d"
 "_ZN4arma3eOpINS_2OpINS_3MatIdEENS_6op_sumEEENS_16eop_scalar_timesEED1Ev"
 "_ZN4arma3eOpINS_3ColIdEENS_16eop_scalar_timesEEC1ERKS2_d"
 "_ZN4arma3eOpINS_3ColIdEENS_16eop_scalar_timesEED1Ev"
 "_ZN4arma3eOpINS_3ColIdEENS_19eop_scalar_div_postEEC1ERKS2_d"
 "_ZN4arma3eOpINS_3ColIdEENS_19eop_scalar_div_postEED1Ev"
 "_ZN4arma3eOpINS_3ColIdEENS_21eop_scalar_minus_postEEC1ERKS2_d"
 "_ZN4arma3eOpINS_3ColIdEENS_21eop_scalar_minus_postEED1Ev"
 "_ZN4arma3eOpINS_3ColIdEENS_7eop_logEEC1ERKS2_"
 "_ZN4arma3eOpINS_3ColIdEENS_7eop_logEED1Ev"
 "_ZN4arma3eOpINS_3ColIdEENS_7eop_negEEC1ERKS2_"
 "_ZN4arma3eOpINS_3ColIdEENS_7eop_negEED1Ev"
 "_ZN4arma3eOpINS_3MatIdEENS_19eop_scalar_div_postEEC1ERKS2_d"
 "_ZN4arma3eOpINS_3MatIdEENS_19eop_scalar_div_postEED1Ev"
 "_ZN4arma3eOpINS_4GlueINS_3ColIdEENS_2OpIS3_NS_9op_htransEEENS_10glue_timesEEENS_16eop_scalar_timesEEC1ERKS8_d"
 "_ZN4arma3eOpINS_4GlueINS_3ColIdEENS_2OpIS3_NS_9op_htransEEENS_10glue_timesEEENS_16eop_scalar_timesEED1Ev"
 "_ZN4arma3eOpINS_4GlueINS_5eGlueINS_11subview_colIdEENS0_IS4_NS_16eop_scalar_timesEEENS_11eglue_minusEEENS_2OpIS8_NS_9op_htransEEENS_10glue_timesEEENS_19eop_scalar_div_postEEC1ERKSD_d"
 "_ZN4arma3eOpINS_4GlueINS_5eGlueINS_11subview_colIdEENS0_IS4_NS_16eop_scalar_timesEEENS_11eglue_minusEEENS_2OpIS8_NS_9op_htransEEENS_10glue_timesEEENS_19eop_scalar_div_postEED1Ev"
 "_ZN4arma3eOpINS_4GlueINS_5eGlueINS_2OpINS_11subview_rowIdEENS_9op_htransEEENS3_IS5_NS_10op_htrans2EEENS_11eglue_minusEEENS3_ISB_S6_EENS_10glue_timesEEENS_19eop_scalar_div_postEEC1ERKSE_d"
 "_ZN4arma3eOpINS_4GlueINS_5eGlueINS_2OpINS_11subview_rowIdEENS_9op_htransEEENS3_IS5_NS_10op_htrans2EEENS_11eglue_minusEEENS3_ISB_S6_EENS_10glue_timesEEENS_19eop_scalar_div_postEED1Ev"
 "_ZN4arma3eOpINS_4GlueINS1_INS_11subview_rowIdEENS_3MatIdEENS_10glue_timesEEENS_2OpIS3_NS_9op_htransEEES6_EENS_21eop_scalar_minus_postEEC1ERKSB_d"
 "_ZN4arma3eOpINS_4GlueINS1_INS_11subview_rowIdEENS_3MatIdEENS_10glue_timesEEENS_2OpIS3_NS_9op_htransEEES6_EENS_21eop_scalar_minus_postEED1Ev"
 "_ZN4arma3eOpINS_5eGlueINS_3ColIdEES3_NS_11eglue_minusEEENS_21eop_scalar_minus_postEEC1ERKS5_d"
 "_ZN4arma3eOpINS_5eGlueINS_3ColIdEES3_NS_11eglue_minusEEENS_21eop_scalar_minus_postEED1Ev"
 "_ZN4arma3eOpINS_5eGlueINS0_INS_3ColIdEENS_16eop_scalar_timesEEENS_11subview_colIdEENS_10eglue_plusEEES4_EC1ERKS9_d"
 "_ZN4arma3eOpINS_5eGlueINS0_INS_3ColIdEENS_16eop_scalar_timesEEENS_11subview_colIdEENS_10eglue_plusEEES4_ED1Ev"
 "_ZN4arma3eOpINS_5eGlueINS0_INS_3ColIdEENS_16eop_scalar_timesEEENS_2OpINS_11subview_rowIdEENS_9op_htransEEENS_10eglue_plusEEES4_EC1ERKSC_d"
 "_ZN4arma3eOpINS_5eGlueINS0_INS_3ColIdEENS_16eop_scalar_timesEEENS_2OpINS_11subview_rowIdEENS_9op_htransEEENS_10eglue_plusEEES4_ED1Ev"
 "_ZN4arma3eOpINS_5eGlueINS1_INS0_INS_3ColIdEENS_16eop_scalar_timesEEENS_11subview_colIdEENS_10eglue_plusEEENS0_INS_2OpINS_3MatIdEENS_6op_sumEEES4_EES8_EES4_EC1ERKSG_d"
 "_ZN4arma3eOpINS_5eGlueINS1_INS0_INS_3ColIdEENS_16eop_scalar_timesEEENS_11subview_colIdEENS_10eglue_plusEEENS0_INS_2OpINS_3MatIdEENS_6op_sumEEES4_EES8_EES4_ED1Ev"
 "_ZN4arma3eOpINS_5eGlueINS1_INS0_INS_3ColIdEENS_16eop_scalar_timesEEENS_2OpINS_11subview_rowIdEENS_9op_htransEEENS_10eglue_plusEEENS0_INS6_INS_3MatIdEENS_6op_sumEEES4_EESB_EES4_EC1ERKSI_d"
 "_ZN4arma3eOpINS_5eGlueINS1_INS0_INS_3ColIdEENS_16eop_scalar_timesEEENS_2OpINS_11subview_rowIdEENS_9op_htransEEENS_10eglue_plusEEENS0_INS6_INS_3MatIdEENS_6op_sumEEES4_EESB_EES4_ED1Ev"
 "_ZN4arma3eOpINS0_INS_3ColIdEENS_21eop_scalar_minus_postEEENS_7eop_expEEC1ERKS4_"
 "_ZN4arma3eOpINS0_INS_3ColIdEENS_21eop_scalar_minus_postEEENS_7eop_expEED1Ev"
 "_ZN4arma3eOpINS0_INS_3ColIdEENS_7eop_negEEENS_15eop_scalar_plusEEC1ERKS4_d"
 "_ZN4arma3eOpINS0_INS_3ColIdEENS_7eop_negEEENS_15eop_scalar_plusEED1Ev"
 "_ZN4arma3eOpINS0_INS_4GlueINS1_INS_11subview_rowIdEENS_3MatIdEENS_10glue_timesEEENS_2OpIS3_NS_9op_htransEEES6_EENS_21eop_scalar_minus_postEEENS_15eop_scalar_plusEEC1ERKSD_d"
 "_ZN4arma3eOpINS0_INS_4GlueINS1_INS_11subview_rowIdEENS_3MatIdEENS_10glue_timesEEENS_2OpIS3_NS_9op_htransEEES6_EENS_21eop_scalar_minus_postEEENS_15eop_scalar_plusEED1Ev"
 "_ZN4arma3eOpINS0_INS0_INS_3ColIdEENS_7eop_negEEENS_15eop_scalar_plusEEENS_7eop_logEEC1ERKS6_"
 "_ZN4arma3eOpINS0_INS0_INS_3ColIdEENS_7eop_negEEENS_15eop_scalar_plusEEENS_7eop_logEED1Ev"
 "_ZN4arma3eOpINS0_INS0_INS_4GlueINS1_INS_11subview_rowIdEENS_3MatIdEENS_10glue_timesEEENS_2OpIS3_NS_9op_htransEEES6_EENS_21eop_scalar_minus_postEEENS_15eop_scalar_plusEEENS_7eop_logEEC1ERKSF_"
 "_ZN4arma3eOpINS0_INS0_INS_4GlueINS1_INS_11subview_rowIdEENS_3MatIdEENS_10glue_timesEEENS_2OpIS3_NS_9op_htransEEES6_EENS_21eop_scalar_minus_postEEENS_15eop_scalar_plusEEENS_7eop_logEED1Ev"
 "_ZN4arma3eOpINS0_INS0_INS0_INS_4GlueINS1_INS_11subview_rowIdEENS_3MatIdEENS_10glue_timesEEENS_2OpIS3_NS_9op_htransEEES6_EENS_21eop_scalar_minus_postEEENS_15eop_scalar_plusEEENS_7eop_logEEENS_16eop_scalar_timesEEC1ERKSH_d"
 "_ZN4arma3eOpINS0_INS0_INS0_INS_4GlueINS1_INS_11subview_rowIdEENS_3MatIdEENS_10glue_timesEEENS_2OpIS3_NS_9op_htransEEES6_EENS_21eop_scalar_minus_postEEENS_15eop_scalar_plusEEENS_7eop_logEEENS_16eop_scalar_timesEED1Ev"
 "_ZN4arma3MatIdE3endEv"
 "_ZN4arma3MatIdE4fillEd"
 "_ZN4arma3MatIdE4fillINS_4fill10fill_zerosEEERS1_RKNS3_10fill_classIT_EE"
 "_ZN4arma3MatIdE5beginEv"
 "_ZN4arma3MatIdE5resetEv"
 "_ZN4arma3MatIdE5zerosEjj"
 "_ZN4arma3MatIdE5zerosEv"
 "_ZN4arma3MatIdE6resizeEj"
 "_ZN4arma3MatIdE6resizeEjj"
 "_ZN4arma3MatIdE8set_sizeEj"
 "_ZN4arma3MatIdE8set_sizeEjj"
 "_ZN4arma3MatIdE9init_coldEv"
 "_ZN4arma3MatIdE9init_warmEjj"
 "_ZN4arma3MatIdE9steal_memERS1_"
 "_ZN4arma3MatIdE9steal_memERS1_b"
 "_ZN4arma3MatIdE9swap_rowsEjj"
 "_ZN4arma3MatIdEaSEOS1_"
 "_ZN4arma3MatIdEaSERKNS_7subviewIdEE"
 "_ZN4arma3MatIdEaSERKS1_"
 "_ZN4arma3MatIdEaSINS_11subview_rowIdEENS_9op_htransEEERS1_RKNS_2OpIT_T0_EE"
 "_ZN4arma3MatIdEaSINS_3ColIdEENS_13op_cumsum_vecEEERS1_RKNS_2OpIT_T0_EE"
 "_ZN4arma3MatIdEaSINS_3ColIdEENS_19eop_scalar_div_postEEERS1_RKNS_3eOpIT_T0_EE"
 "_ZN4arma3MatIdEaSINS_3ColIdEENS_21eop_scalar_minus_postEEERS1_RKNS_3eOpIT_T0_EE"
 "_ZN4arma3MatIdEaSINS_3ColIdEENS_7eop_logEEERS1_RKNS_3eOpIT_T0_EE"
 "_ZN4arma3MatIdEaSINS_3ColIdEES4_NS_11eglue_minusEEERS1_RKNS_5eGlueIT_T0_T1_EE"
 "_ZN4arma3MatIdEaSINS_3eOpINS_3ColIdEENS_19eop_scalar_div_postEEENS_13op_cumsum_vecEEERS1_RKNS_2OpIT_T0_EE"
 "_ZN4arma3MatIdEaSINS_3eOpINS3_INS3_INS_4GlueINS4_INS_11subview_rowIdEES1_NS_10glue_timesEEENS_2OpIS6_NS_9op_htransEEES7_EENS_21eop_scalar_minus_postEEENS_15eop_scalar_plusEEENS_7eop_logEEENS_16eop_scalar_timesEEERS1_RKNS3_IT_T0_EE"
 "_ZN4arma3MatIdEaSINS_4CubeIdEEEERS1_RKNS_8BaseCubeIdT_EE"
 "_ZN4arma3MatIdEaSINS_4GlueINS_12subview_colsIdEENS_2OpINS_11subview_rowIdEENS_9op_htransEEENS_10glue_timesEEENS_11subview_colIdEENS_11eglue_minusEEERS1_RKNS_5eGlueIT_T0_T1_EE"
 "_ZN4arma3MatIdEaSINS_4mtOpIjNS3_IjNS_3ColIdEENS_9op_rel_eqEEENS_14op_find_simpleEEEEERS1_RKNS_13subview_elem1IdT_EE"
 "_ZN4arma3MatIdEaSINS_5eGlueINS_3ColIdEES5_NS_11eglue_minusEEENS_21eop_scalar_minus_postEEERS1_RKNS_3eOpIT_T0_EE"
 "_ZN4arma3MatIdEaSINS_5eGlueINS_3eOpINS_3ColIdEENS_16eop_scalar_timesEEENS_11subview_colIdEENS_10eglue_plusEEES7_EERS1_RKNS4_IT_T0_EE"
 "_ZN4arma3MatIdEaSINS_5eGlueINS_3eOpINS_3ColIdEENS_16eop_scalar_timesEEENS_2OpINS_11subview_rowIdEENS_9op_htransEEENS_10eglue_plusEEES7_EERS1_RKNS4_IT_T0_EE"
 "_ZN4arma3MatIdEaSINS_5eGlueINS3_INS_3eOpINS_3ColIdEENS_16eop_scalar_timesEEENS_11subview_colIdEENS_10eglue_plusEEENS4_INS_2OpIS1_NS_6op_sumEEES7_EESB_EES7_EERS1_RKNS4_IT_T0_EE"
 "_ZN4arma3MatIdEaSINS_5eGlueINS3_INS_3eOpINS_3ColIdEENS_16eop_scalar_timesEEENS_2OpINS_11subview_rowIdEENS_9op_htransEEENS_10eglue_plusEEENS4_INS9_IS1_NS_6op_sumEEES7_EESE_EES7_EERS1_RKNS4_IT_T0_EE"
 "_ZN4arma3MatIdEaSINS_5eGlueINS3_INS3_IS1_NS_4GlueINS_11subview_colIdEENS_2OpIS6_NS_9op_htransEEENS_10glue_timesEEENS_10eglue_plusEEES1_SC_EENS_3eOpINS4_INS_3ColIdEENS7_ISH_S8_EESA_EENS_16eop_scalar_timesEEESC_EESL_NS_11eglue_minusEEERS1_RKNS3_IT_T0_T1_EE"
 "_ZN4arma3MatIdEaSINS_5eGlueINS3_INS3_IS1_NS_4GlueINS_2OpINS_11subview_rowIdEENS_9op_htransEEES7_NS_10glue_timesEEENS_10eglue_plusEEES1_SC_EENS_3eOpINS4_INS_3ColIdEENS5_ISH_S8_EESA_EENS_16eop_scalar_timesEEESC_EESL_NS_11eglue_minusEEERS1_RKNS3_IT_T0_T1_EE"
 "_ZN4arma3MatIdEaSINS_5eGlueINS3_IS1_NS_4GlueINS_11subview_colIdEENS_2OpIS6_NS_9op_htransEEENS_10glue_timesEEENS_10eglue_plusEEENS_3eOpINS4_INS_3ColIdEENS7_ISG_S8_EESA_EENS_16eop_scalar_timesEEESC_EESK_NS_11eglue_minusEEERS1_RKNS3_IT_T0_T1_EE"
 "_ZN4arma3MatIdEaSINS_5eGlueINS3_IS1_NS_4GlueINS_2OpINS_11subview_rowIdEENS_9op_htransEEES7_NS_10glue_timesEEENS_10eglue_plusEEENS_3eOpINS4_INS_3ColIdEENS5_ISG_S8_EESA_EENS_16eop_scalar_timesEEESC_EESK_NS_11eglue_minusEEERS1_RKNS3_IT_T0_T1_EE"
 "_ZN4arma3MatIdEaSINS0_IjEES3_EERS1_RKNS_13subview_elem2IdT_T0_EE"
 "_ZN4arma3MatIdEaSIS1_NS_3eOpINS_4GlueINS_5eGlueINS_11subview_colIdEENS3_IS7_NS_16eop_scalar_timesEEENS_11eglue_minusEEENS_2OpISB_NS_9op_htransEEENS_10glue_timesEEENS_19eop_scalar_div_postEEENS_10eglue_plusEEERS1_RKNS5_IT_T0_T1_EE"
 "_ZN4arma3MatIdEaSIS1_NS_3eOpINS_4GlueINS_5eGlueINS_2OpINS_11subview_rowIdEENS_9op_htransEEENS6_IS8_NS_10op_htrans2EEENS_11eglue_minusEEENS6_ISE_S9_EENS_10glue_timesEEENS_19eop_scalar_div_postEEENS_10eglue_plusEEERS1_RKNS5_IT_T0_T1_EE"
 "_ZN4arma3MatIdEC1EcPKdjj"
 "_ZN4arma3MatIdEC1Ejj"
 "_ZN4arma3MatIdEC1EPdjjbb"
 "_ZN4arma3MatIdEC1ERKNS_7subviewIdEE"
 "_ZN4arma3MatIdEC1ERKS1_"
 "_ZN4arma3MatIdEC1Ev"
 "_ZN4arma3MatIdEC1ILb0EEEjjRKNS_23arma_initmode_indicatorIXT_EEE"
 "_ZN4arma3MatIdEC1INS_11subview_colIdEENS_2OpIS4_NS_9op_htransEEENS_10glue_timesEEERKNS_4GlueIT_T0_T1_EE"
 "_ZN4arma3MatIdEC1INS_11subview_colIdEENS_3eOpIS4_NS_16eop_scalar_timesEEENS_11eglue_minusEEERKNS_5eGlueIT_T0_T1_EE"
 "_ZN4arma3MatIdEC1INS_11subview_rowIdEENS_9op_htransEEERKNS_2OpIT_T0_EE"
 "_ZN4arma3MatIdEC1INS_12subview_colsIdEENS_2OpINS_11subview_rowIdEENS_9op_htransEEENS_10glue_timesEEERKNS_4GlueIT_T0_T1_EE"
 "_ZN4arma3MatIdEC1INS_2OpINS_11subview_rowIdEENS_9op_htransEEENS3_IS5_NS_10op_htrans2EEENS_11eglue_minusEEERKNS_5eGlueIT_T0_T1_EE"
 "_ZN4arma3MatIdEC1INS_2OpINS_11subview_rowIdEENS_9op_htransEEES5_NS_10glue_timesEEERKNS_4GlueIT_T0_T1_EE"
 "_ZN4arma3MatIdEC1INS_3ColIdEENS_19eop_scalar_div_postEEERKNS_3eOpIT_T0_EE"
 "_ZN4arma3MatIdEC1INS_3ColIdEENS_2OpIS4_NS_9op_htransEEENS_10glue_timesEEERKNS_4GlueIT_T0_T1_EE"
 "_ZN4arma3MatIdEC1INS_3ColIdEENS_9op_htransEEERKNS_2OpIT_T0_EE"
 "_ZN4arma3MatIdEC1INS_4CubeIdEEEERKNS_8BaseCubeIdT_EE"
 "_ZN4arma3MatIdEC1INS_4fill10fill_zerosEEEjjRKNS3_10fill_classIT_EE"
 "_ZN4arma3MatIdEC1INS_4GlueINS_11subview_rowIdEES1_NS_10glue_timesEEENS_2OpIS5_NS_9op_htransEEES6_EERKNS3_IT_T0_T1_EE"
 "_ZN4arma3MatIdEC1INS_4GlueINS_12subview_colsIdEENS_2OpINS_11subview_rowIdEENS_9op_htransEEENS_10glue_timesEEENS_11subview_colIdEENS_11eglue_minusEEERKNS_5eGlueIT_T0_T1_EE"
 "_ZN4arma3MatIdEC1INS_4GlueIS1_S1_NS_10glue_timesEEENS_2OpIS1_NS_9op_htransEEES4_EERKNS3_IT_T0_T1_EE"
 "_ZN4arma3MatIdEC1INS_5eGlueINS_11subview_colIdEENS_3eOpIS5_NS_16eop_scalar_timesEEENS_11eglue_minusEEENS_2OpISA_NS_9op_htransEEENS_10glue_timesEEERKNS_4GlueIT_T0_T1_EE"
 "_ZN4arma3MatIdEC1INS_5eGlueINS_2OpINS_11subview_rowIdEENS_9op_htransEEENS4_IS6_NS_10op_htrans2EEENS_11eglue_minusEEENS4_ISC_S7_EENS_10glue_timesEEERKNS_4GlueIT_T0_T1_EE"
 "_ZN4arma3MatIdEC1INS_5eGlueINS_3eOpINS_3ColIdEENS_16eop_scalar_timesEEENS_11subview_colIdEENS_10eglue_plusEEES7_EERKNS4_IT_T0_EE"
 "_ZN4arma3MatIdEC1INS_5eGlueINS_3eOpINS_3ColIdEENS_16eop_scalar_timesEEENS_2OpINS_11subview_rowIdEENS_9op_htransEEENS_10eglue_plusEEES7_EERKNS4_IT_T0_EE"
 "_ZN4arma3MatIdEC1INS_5eGlueINS3_INS_3eOpINS_3ColIdEENS_16eop_scalar_timesEEENS_11subview_colIdEENS_10eglue_plusEEENS4_INS_2OpIS1_NS_6op_sumEEES7_EESB_EES7_EERKNS4_IT_T0_EE"
 "_ZN4arma3MatIdEC1INS_5eGlueINS3_INS_3eOpINS_3ColIdEENS_16eop_scalar_timesEEENS_2OpINS_11subview_rowIdEENS_9op_htransEEENS_10eglue_plusEEENS4_INS9_IS1_NS_6op_sumEEES7_EESE_EES7_EERKNS4_IT_T0_EE"
 "_ZN4arma3MatIdEC1INS0_IjEES3_EERKNS_13subview_elem2IdT_T0_EE"
 "_ZN4arma3MatIdEC1IS1_NS_19eop_scalar_div_postEEERKNS_3eOpIT_T0_EE"
 "_ZN4arma3MatIdEC1IS1_NS_6op_sumEEERKNS_2OpIT_T0_EE"
 "_ZN4arma3MatIdEC1IS1_NS_9op_htransEEERKNS_2OpIT_T0_EE"
 "_ZN4arma3MatIdEC2EPdjjbb"
 "_ZN4arma3MatIdEC2ERKNS_18arma_vec_indicatorEjjt"
 "_ZN4arma3MatIdEC2ERKNS_18arma_vec_indicatorEt"
 "_ZN4arma3MatIdED1Ev"
 "_ZN4arma3MatIdED2Ev"
 "_ZN4arma3MatIdEmIEd"
 "_ZN4arma3MatIiE9init_coldEv"
 "_ZN4arma3MatIiE9init_warmEjj"
 "_ZN4arma3MatIiEC2ERKNS_18arma_vec_indicatorEjjt"
 "_ZN4arma3MatIiED2Ev"
 "_ZN4arma3MatIjE13steal_mem_colERS1_j"
 "_ZN4arma3MatIjE3endEv"
 "_ZN4arma3MatIjE5beginEv"
 "_ZN4arma3MatIjE5resetEv"
 "_ZN4arma3MatIjE8set_sizeEjj"
 "_ZN4arma3MatIjE9init_coldEv"
 "_ZN4arma3MatIjE9init_warmEjj"
 "_ZN4arma3MatIjE9steal_memERS1_"
 "_ZN4arma3MatIjE9steal_memERS1_b"
 "_ZN4arma3MatIjEaSERKS1_"
 "_ZN4arma3MatIjEaSINS_3ColIdEENS_14op_find_uniqueEEERS1_RKNS_4mtOpIjT_T0_EE"
 "_ZN4arma3MatIjEaSINS_4mtOpIjNS_3ColIdEENS_9op_rel_eqEEENS_14op_find_simpleEEERS1_RKNS3_IjT_T0_EE"
 "_ZN4arma3MatIjEC1ERKS1_"
 "_ZN4arma3MatIjEC1Ev"
 "_ZN4arma3MatIjEC1ILb0EEEjjRKNS_23arma_initmode_indicatorIXT_EEE"
 "_ZN4arma3MatIjEC1INS_4mtOpIjNS_11subview_rowIdEENS_9op_rel_eqEEENS_14op_find_simpleEEERKNS3_IjT_T0_EE"
 "_ZN4arma3MatIjEC1INS_4mtOpIjNS_2OpINS_11subview_rowIdEENS_9op_htransEEENS_9op_rel_eqEEENS_14op_find_simpleEEERKNS3_IjT_T0_EE"
 "_ZN4arma3MatIjEC1INS_4mtOpIjNS_3ColIdEENS_9op_rel_eqEEENS_14op_find_simpleEEERKNS3_IjT_T0_EE"
 "_ZN4arma3MatIjEC2ERKNS_18arma_vec_indicatorEjjt"
 "_ZN4arma3MatIjEC2ERKNS_18arma_vec_indicatorEt"
 "_ZN4arma3MatIjED1Ev"
 "_ZN4arma3MatIjED2Ev"
 "_ZN4arma3maxINS_11subview_rowIdEEEENS_10enable_if2IXaasrNS_12is_arma_typeIT_EE5valuesrNS_18resolves_to_vectorIS5_EE3yesENS5_9elem_typeEE6resultERKS5_"
 "_ZN4arma3maxINS_3ColIdEEEENS_10enable_if2IXaasrNS_12is_arma_typeIT_EE5valuesrNS_18resolves_to_vectorIS5_EE3yesENS5_9elem_typeEE6resultERKS5_"
 "_ZN4arma3maxINS_4mtOpIjNS1_IjNS_11subview_rowIdEENS_9op_rel_eqEEENS_14op_find_simpleEEEEENS_10enable_if2IXaasrNS_12is_arma_typeIT_EE5valuesrNS_18resolves_to_vectorISA_EE3yesENSA_9elem_typeEE6resultERKSA_"
 "_ZN4arma3minINS_4mtOpIjNS1_IjNS_11subview_rowIdEENS_9op_rel_eqEEENS_14op_find_simpleEEEEENS_10enable_if2IXaasrNS_12is_arma_typeIT_EE5valuesrNS_18resolves_to_vectorISA_EE3yesENSA_9elem_typeEE6resultERKSA_"
 "_ZN4arma3minINS_4mtOpIjNS1_IjNS_3ColIdEENS_9op_rel_eqEEENS_14op_find_simpleEEEEENS_10enable_if2IXaasrNS_12is_arma_typeIT_EE5valuesrNS_18resolves_to_vectorISA_EE3yesENSA_9elem_typeEE6resultERKSA_"
 "_ZN4arma3RowIdEC1INS_7subviewIdEEEERKNS_4BaseIdT_EE"
 "_ZN4arma3RowIdED1Ev"
 "_ZN4arma3sumINS_11subview_colIdEEEENS_10enable_if2IXaasrNS_12is_arma_typeIT_EE5valuesrNS_18resolves_to_vectorIS5_EE3yesENS5_9elem_typeEE6resultERKS5_"
 "_ZN4arma3sumINS_11subview_rowIdEEEENS_10enable_if2IXaasrNS_12is_arma_typeIT_EE5valuesrNS_18resolves_to_vectorIS5_EE3yesENS5_9elem_typeEE6resultERKS5_"
 "_ZN4arma3sumINS_13subview_elem1IdNS_4mtOpIjNS2_IjNS_2OpINS_11subview_rowIdEENS_9op_htransEEENS_9op_rel_eqEEENS_14op_find_simpleEEEEEEENS_10enable_if2IXaasrNS_12is_arma_typeIT_EE5valuesrNS_18resolves_to_vectorISF_EE3yesENSF_9elem_typeEE6resultERKSF_"
 "_ZN4arma3sumINS_13subview_elem1IdNS_4mtOpIjNS2_IjNS_3ColIdEENS_9op_rel_eqEEENS_14op_find_simpleEEEEEEENS_10enable_if2IXaasrNS_12is_arma_typeIT_EE5valuesrNS_18resolves_to_vectorISC_EE3yesENSC_9elem_typeEE6resultERKSC_"
 "_ZN4arma3sumINS_3ColIdEEEENS_10enable_if2IXaasrNS_12is_arma_typeIT_EE5valuesrNS_18resolves_to_vectorIS5_EE3yesENS5_9elem_typeEE6resultERKS5_"
 "_ZN4arma3sumINS_3eOpINS_3ColIdEENS_7eop_logEEEEENS_10enable_if2IXaasrNS_12is_arma_typeIT_EE5valuesrNS_18resolves_to_vectorIS8_EE3yesENS8_9elem_typeEE6resultERKS8_"
 "_ZN4arma3sumINS_3eOpINS1_INS_3ColIdEENS_21eop_scalar_minus_postEEENS_7eop_expEEEEENS_10enable_if2IXaasrNS_12is_arma_typeIT_EE5valuesrNS_18resolves_to_vectorISA_EE3yesENSA_9elem_typeEE6resultERKSA_"
 "_ZN4arma3sumINS_4mtOpIjNS_11subview_rowIdEENS_9op_rel_eqEEEEENS_10enable_if2IXaasrNS_12is_arma_typeIT_EE5valuesrNS_18resolves_to_vectorIS8_EE3yesENS8_9elem_typeEE6resultERKS8_"
 "_ZN4arma3sumINS_5eGlueINS_3eOpINS2_INS2_INS_3ColIdEENS_7eop_negEEENS_15eop_scalar_plusEEENS_7eop_logEEESA_NS_11eglue_minusEEEEENS_10enable_if2IXaasrNS_12is_arma_typeIT_EE5valuesrNS_18resolves_to_vectorISF_EE3yesENSF_9elem_typeEE6resultERKSF_"
 "_ZN4arma3sumINS_6mtGlueIjNS_11subview_colIdEES3_NS_11glue_rel_eqEEEEENS_10enable_if2IXaasrNS_12is_arma_typeIT_EE5valuesrNS_18resolves_to_vectorIS8_EE3yesENS8_9elem_typeEE6resultERKS8_"
 "_ZN4arma4accuIdEET_RKNS_11subview_colIS1_EE"
 "_ZN4arma4accuINS_11subview_colIdEES2_EEjRKNS_6mtGlueIjT_T0_NS_11glue_rel_eqEEE"
 "_ZN4arma4accuINS_11subview_rowIdEEEENS_10enable_if2IXsrNS_12is_arma_typeIT_EE5valueENS5_9elem_typeEE6resultERKS5_"
 "_ZN4arma4accuINS_11subview_rowIdEENS_9op_rel_eqEEEjRKNS_4mtOpIjT_T0_EEPKNS_16arma_op_rel_onlyIS6_E6resultEPKNS_11arma_not_cxINS5_9elem_typeEE6resultE"
 "_ZN4arma4accuINS_13subview_elem1IdNS_4mtOpIjNS2_IjNS_2OpINS_11subview_rowIdEENS_9op_htransEEENS_9op_rel_eqEEENS_14op_find_simpleEEEEEEENS_10enable_if2IXsrNS_12is_arma_typeIT_EE5valueENSF_9elem_typeEE6resultERKSF_"
 "_ZN4arma4accuINS_13subview_elem1IdNS_4mtOpIjNS2_IjNS_3ColIdEENS_9op_rel_eqEEENS_14op_find_simpleEEEEEEENS_10enable_if2IXsrNS_12is_arma_typeIT_EE5valueENSC_9elem_typeEE6resultERKSC_"
 "_ZN4arma4accuINS_3ColIdEEEENS_10enable_if2IXsrNS_12is_arma_typeIT_EE5valueENS5_9elem_typeEE6resultERKS5_"
 "_ZN4arma4accuINS_3eOpINS_3ColIdEENS_7eop_logEEEEENS_10enable_if2IXsrNS_12is_arma_typeIT_EE5valueENS8_9elem_typeEE6resultERKS8_"
 "_ZN4arma4accuINS_3eOpINS1_INS_3ColIdEENS_21eop_scalar_minus_postEEENS_7eop_expEEEEENS_10enable_if2IXsrNS_12is_arma_typeIT_EE5valueENSA_9elem_typeEE6resultERKSA_"
 "_ZN4arma4accuINS_5eGlueINS_3eOpINS2_INS2_INS_3ColIdEENS_7eop_negEEENS_15eop_scalar_plusEEENS_7eop_logEEESA_NS_11eglue_minusEEEEENS_10enable_if2IXsrNS_12is_arma_typeIT_EE5valueENSF_9elem_typeEE6resultERKSF_"
 "_ZN4arma4blas3dotIdEET_jPKS2_S4_"
 "_ZN4arma4blas4gemmIdEEvPKcS3_PKiS5_S5_PKT_S8_S5_S8_S5_S8_PS6_S5_"
 "_ZN4arma4blas4gemvIdEEvPKcPKiS5_PKT_S8_S5_S8_S5_S8_PS6_S5_"
 "_ZN4arma4blas4syrkIdEEvPKcS3_PKiS5_PKT_S8_S5_S8_PS6_S5_"
 "_ZN4arma4CubeIdE10create_matEv"
 "_ZN4arma4CubeIdE10delete_matEv"
 "_ZN4arma4CubeIdE5sliceEj"
 "_ZN4arma4CubeIdE8set_sizeEjjj"
 "_ZN4arma4CubeIdE9init_coldEv"
 "_ZN4arma4CubeIdE9init_warmEjjj"
 "_ZN4arma4CubeIdEC1Ejjj"
 "_ZN4arma4CubeIdEC1ERKNS_12subview_cubeIdEE"
 "_ZN4arma4CubeIdEC1ERKS1_"
 "_ZN4arma4CubeIdEC1INS_3MatIjEEEERKNS_19subview_cube_slicesIdT_EE"
 "_ZN4arma4CubeIdED1Ev"
 "_ZN4arma4findINS_4mtOpIjNS_11subview_rowIdEENS_9op_rel_eqEEEEENS_10enable_if2IXsrNS_12is_arma_typeIT_EE5valueEKNS1_IjS8_NS_14op_find_simpleEEEE6resultERKS8_"
 "_ZN4arma4findINS_4mtOpIjNS_2OpINS_11subview_rowIdEENS_9op_htransEEENS_9op_rel_eqEEEEENS_10enable_if2IXsrNS_12is_arma_typeIT_EE5valueEKNS1_IjSB_NS_14op_find_simpleEEEE6resultERKSB_"
 "_ZN4arma4findINS_4mtOpIjNS_3ColIdEENS_9op_rel_eqEEEEENS_10enable_if2IXsrNS_12is_arma_typeIT_EE5valueEKNS1_IjS8_NS_14op_find_simpleEEEE6resultERKS8_"
 "_ZN4arma4gemmILb0ELb0ELb0ELb0EE15apply_blas_typeIdNS_3MatIdEES4_EEvRNS3_IT_EERKT0_RKT1_S5_S5_"
 "_ZN4arma4gemmILb0ELb1ELb0ELb0EE15apply_blas_typeIdNS_3ColIdEES4_EEvRNS_3MatIT_EERKT0_RKT1_S6_S6_"
 "_ZN4arma4gemmILb0ELb1ELb0ELb0EE15apply_blas_typeIdNS_3MatIdEES4_EEvRNS3_IT_EERKT0_RKT1_S5_S5_"
 "_ZN4arma4gemmILb1ELb0ELb0ELb0EE15apply_blas_typeIdNS_3RowIdEES4_EEvRNS_3MatIT_EERKT0_RKT1_S6_S6_"
 "_ZN4arma4gemvILb0ELb0ELb0EE15apply_blas_typeIdNS_3ColIdEEEEvPT_RKT0_PKS5_S5_S5_"
 "_ZN4arma4gemvILb0ELb0ELb0EE15apply_blas_typeIdNS_3MatIdEEEEvPT_RKT0_PKS5_S5_S5_"
 "_ZN4arma4gemvILb0ELb0ELb0EE15apply_blas_typeIdNS_3RowIdEEEEvPT_RKT0_PKS5_S5_S5_"
 "_ZN4arma4gemvILb1ELb0ELb0EE15apply_blas_typeIdNS_3MatIdEEEEvPT_RKT0_PKS5_S5_S5_"
 "_ZN4arma4gemvILb1ELb0ELb0EE15apply_blas_typeIdNS_3RowIdEEEEvPT_RKT0_PKS5_S5_S5_"
 "_ZN4arma4GlueINS_11subview_colIdEENS_2OpIS2_NS_9op_htransEEENS_10glue_timesEEC1ERKS2_RKS5_"
 "_ZN4arma4GlueINS_11subview_colIdEENS_2OpIS2_NS_9op_htransEEENS_10glue_timesEED1Ev"
 "_ZN4arma4GlueINS_11subview_rowIdEENS_3MatIdEENS_10glue_timesEEC1ERKS2_RKS4_"
 "_ZN4arma4GlueINS_11subview_rowIdEENS_3MatIdEENS_10glue_timesEED1Ev"
 "_ZN4arma4GlueINS_12subview_colsIdEENS_2OpINS_11subview_rowIdEENS_9op_htransEEENS_10glue_timesEEC1ERKS2_RKS7_"
 "_ZN4arma4GlueINS_12subview_colsIdEENS_2OpINS_11subview_rowIdEENS_9op_htransEEENS_10glue_timesEED1Ev"
 "_ZN4arma4GlueINS_2OpINS_11subview_rowIdEENS_9op_htransEEES3_NS_10glue_timesEEC1ERKS5_RKS3_"
 "_ZN4arma4GlueINS_2OpINS_11subview_rowIdEENS_9op_htransEEES3_NS_10glue_timesEED1Ev"
 "_ZN4arma4GlueINS_3ColIdEENS_2OpIS2_NS_9op_htransEEENS_10glue_timesEEC1ERKS2_RKS5_"
 "_ZN4arma4GlueINS_3ColIdEENS_2OpIS2_NS_9op_htransEEENS_10glue_timesEED1Ev"
 "_ZN4arma4GlueINS_3MatIdEES2_NS_10glue_timesEEC1ERKS2_S6_"
 "_ZN4arma4GlueINS_3MatIdEES2_NS_10glue_timesEED1Ev"
 "_ZN4arma4GlueINS_5eGlueINS_11subview_colIdEENS_3eOpIS3_NS_16eop_scalar_timesEEENS_11eglue_minusEEENS_2OpIS8_NS_9op_htransEEENS_10glue_timesEEC1ERKS8_RKSB_"
 "_ZN4arma4GlueINS_5eGlueINS_11subview_colIdEENS_3eOpIS3_NS_16eop_scalar_timesEEENS_11eglue_minusEEENS_2OpIS8_NS_9op_htransEEENS_10glue_timesEED1Ev"
 "_ZN4arma4GlueINS_5eGlueINS_2OpINS_11subview_rowIdEENS_9op_htransEEENS2_IS4_NS_10op_htrans2EEENS_11eglue_minusEEENS2_ISA_S5_EENS_10glue_timesEEC1ERKSA_RKSB_"
 "_ZN4arma4GlueINS_5eGlueINS_2OpINS_11subview_rowIdEENS_9op_htransEEENS2_IS4_NS_10op_htrans2EEENS_11eglue_minusEEENS2_ISA_S5_EENS_10glue_timesEED1Ev"
 "_ZN4arma4GlueINS0_INS_11subview_rowIdEENS_3MatIdEENS_10glue_timesEEENS_2OpIS2_NS_9op_htransEEES5_EC1ERKS6_RKS9_"
 "_ZN4arma4GlueINS0_INS_11subview_rowIdEENS_3MatIdEENS_10glue_timesEEENS_2OpIS2_NS_9op_htransEEES5_ED1Ev"
 "_ZN4arma4GlueINS0_INS_3MatIdEES2_NS_10glue_timesEEENS_2OpIS2_NS_9op_htransEEES3_EC1ERKS4_RKS7_"
 "_ZN4arma4GlueINS0_INS_3MatIdEES2_NS_10glue_timesEEENS_2OpIS2_NS_9op_htransEEES3_ED1Ev"
 "_ZN4arma4mtOpIjNS_11subview_rowIdEENS_9op_rel_eqEEC1ERKS2_d"
 "_ZN4arma4mtOpIjNS_11subview_rowIdEENS_9op_rel_eqEED1Ev"
 "_ZN4arma4mtOpIjNS_2OpINS_11subview_rowIdEENS_9op_htransEEENS_9op_rel_eqEEC1ERKS5_d"
 "_ZN4arma4mtOpIjNS_2OpINS_11subview_rowIdEENS_9op_htransEEENS_9op_rel_eqEED1Ev"
 "_ZN4arma4mtOpIjNS_3ColIdEENS_14op_find_uniqueEEC1ERKS2_jj"
 "_ZN4arma4mtOpIjNS_3ColIdEENS_14op_find_uniqueEED1Ev"
 "_ZN4arma4mtOpIjNS_3ColIdEENS_9op_rel_eqEEC1ERKS2_d"
 "_ZN4arma4mtOpIjNS_3ColIdEENS_9op_rel_eqEED1Ev"
 "_ZN4arma4mtOpIjNS0_IjNS_11subview_rowIdEENS_9op_rel_eqEEENS_14op_find_simpleEEC1ERKS4_"
 "_ZN4arma4mtOpIjNS0_IjNS_11subview_rowIdEENS_9op_rel_eqEEENS_14op_find_simpleEED1Ev"
 "_ZN4arma4mtOpIjNS0_IjNS_2OpINS_11subview_rowIdEENS_9op_htransEEENS_9op_rel_eqEEENS_14op_find_simpleEEC1ERKS7_"
 "_ZN4arma4mtOpIjNS0_IjNS_2OpINS_11subview_rowIdEENS_9op_htransEEENS_9op_rel_eqEEENS_14op_find_simpleEED1Ev"
 "_ZN4arma4mtOpIjNS0_IjNS_3ColIdEENS_9op_rel_eqEEENS_14op_find_simpleEEC1ERKS4_"
 "_ZN4arma4mtOpIjNS0_IjNS_3ColIdEENS_9op_rel_eqEEENS_14op_find_simpleEED1Ev"
 "_ZN4arma4priv12Datum_helper3nanIdEENS_14arma_real_onlyIT_E6resultEPS6_"
 "_ZN4arma4priv12Datum_helper3nanIjEENS_18arma_integral_onlyIT_E6resultEPS6_"
 "_ZN4arma4syrkILb0ELb0ELb0EE15apply_blas_typeIdNS_3ColIdEEEEvRNS_3MatIT_EERKT0_S6_S6_"
 "_ZN4arma4syrkILb0ELb0ELb0EE15apply_blas_typeIdNS_3MatIdEEEEvRNS3_IT_EERKT0_S5_S5_"
 "_ZN4arma4syrkILb1ELb0ELb0EE15apply_blas_typeIdNS_3RowIdEEEEvRNS_3MatIT_EERKT0_S6_S6_"
 "_ZN4arma5DatumIdE3nanE"
 "_ZN4arma5DatumIjE3nanE"
 "_ZN4arma5ProxyINS_11subview_colIdEEEC1ERKS2_"
 "_ZN4arma5ProxyINS_11subview_rowIdEEEC1ERKS2_"
 "_ZN4arma5ProxyINS_13subview_elem1IdNS_4mtOpIjNS2_IjNS_2OpINS_11subview_rowIdEENS_9op_htransEEENS_9op_rel_eqEEENS_14op_find_simpleEEEEEEC1ERKSC_"
 "_ZN4arma5ProxyINS_13subview_elem1IdNS_4mtOpIjNS2_IjNS_2OpINS_11subview_rowIdEENS_9op_htransEEENS_9op_rel_eqEEENS_14op_find_simpleEEEEEED1Ev"
 "_ZN4arma5ProxyINS_13subview_elem1IdNS_4mtOpIjNS2_IjNS_3ColIdEENS_9op_rel_eqEEENS_14op_find_simpleEEEEEEC1ERKS9_"
 "_ZN4arma5ProxyINS_13subview_elem1IdNS_4mtOpIjNS2_IjNS_3ColIdEENS_9op_rel_eqEEENS_14op_find_simpleEEEEEED1Ev"
 "_ZN4arma5ProxyINS_2OpINS_11subview_rowIdEENS_10op_htrans2EEEEC1ERKS5_"
 "_ZN4arma5ProxyINS_2OpINS_11subview_rowIdEENS_10op_htrans2EEEED1Ev"
 "_ZN4arma5ProxyINS_2OpINS_11subview_rowIdEENS_9op_htransEEEEC1ERKS5_"
 "_ZN4arma5ProxyINS_2OpINS_3ColIdEENS_9op_htransEEEEC1ERKS5_"
 "_ZN4arma5ProxyINS_2OpINS_3ColIdEENS_9op_htransEEEED1Ev"
 "_ZN4arma5ProxyINS_2OpINS_3MatIdEENS_6op_sumEEEEC1ERKS5_"
 "_ZN4arma5ProxyINS_2OpINS_3MatIdEENS_6op_sumEEEED1Ev"
 "_ZN4arma5ProxyINS_3ColIdEEEC1ERKS2_"
 "_ZN4arma5ProxyINS_3eOpINS_11subview_colIdEENS_16eop_scalar_timesEEEEC1ERKS5_"
 "_ZN4arma5ProxyINS_3eOpINS_2OpINS_3MatIdEENS_6op_sumEEENS_16eop_scalar_timesEEEEC1ERKS8_"
 "_ZN4arma5ProxyINS_3eOpINS_3ColIdEENS_16eop_scalar_timesEEEEC1ERKS5_"
 "_ZN4arma5ProxyINS_3eOpINS_3ColIdEENS_21eop_scalar_minus_postEEEEC1ERKS5_"
 "_ZN4arma5ProxyINS_3eOpINS_3ColIdEENS_7eop_logEEEEC1ERKS5_"
 "_ZN4arma5ProxyINS_3eOpINS_3ColIdEENS_7eop_negEEEEC1ERKS5_"
 "_ZN4arma5ProxyINS_3eOpINS_4GlueINS_3ColIdEENS_2OpIS4_NS_9op_htransEEENS_10glue_timesEEENS_16eop_scalar_timesEEEEC1ERKSB_"
 "_ZN4arma5ProxyINS_3eOpINS_4GlueINS_5eGlueINS_11subview_colIdEENS1_IS5_NS_16eop_scalar_timesEEENS_11eglue_minusEEENS_2OpIS9_NS_9op_htransEEENS_10glue_timesEEENS_19eop_scalar_div_postEEEEC1ERKSG_"
 "_ZN4arma5ProxyINS_3eOpINS_4GlueINS_5eGlueINS_2OpINS_11subview_rowIdEENS_9op_htransEEENS4_IS6_NS_10op_htrans2EEENS_11eglue_minusEEENS4_ISC_S7_EENS_10glue_timesEEENS_19eop_scalar_div_postEEEEC1ERKSH_"
 "_ZN4arma5ProxyINS_3eOpINS_4GlueINS2_INS_11subview_rowIdEENS_3MatIdEENS_10glue_timesEEENS_2OpIS4_NS_9op_htransEEES7_EENS_21eop_scalar_minus_postEEEEC1ERKSE_"
 "_ZN4arma5ProxyINS_3eOpINS1_INS_3ColIdEENS_21eop_scalar_minus_postEEENS_7eop_expEEEEC1ERKS7_"
 "_ZN4arma5ProxyINS_3eOpINS1_INS_3ColIdEENS_7eop_negEEENS_15eop_scalar_plusEEEEC1ERKS7_"
 "_ZN4arma5ProxyINS_3eOpINS1_INS_4GlueINS2_INS_11subview_rowIdEENS_3MatIdEENS_10glue_timesEEENS_2OpIS4_NS_9op_htransEEES7_EENS_21eop_scalar_minus_postEEENS_15eop_scalar_plusEEEEC1ERKSG_"
 "_ZN4arma5ProxyINS_3eOpINS1_INS1_INS_3ColIdEENS_7eop_negEEENS_15eop_scalar_plusEEENS_7eop_logEEEEC1ERKS9_"
 "_ZN4arma5ProxyINS_3eOpINS1_INS1_INS_4GlueINS2_INS_11subview_rowIdEENS_3MatIdEENS_10glue_timesEEENS_2OpIS4_NS_9op_htransEEES7_EENS_21eop_scalar_minus_postEEENS_15eop_scalar_plusEEENS_7eop_logEEEEC1ERKSI_"
 "_ZN4arma5ProxyINS_3MatIdEEEC1ERKS2_"
 "_ZN4arma5ProxyINS_4GlueINS_11subview_colIdEENS_2OpIS3_NS_9op_htransEEENS_10glue_timesEEEEC1ERKS8_"
 "_ZN4arma5ProxyINS_4GlueINS_11subview_colIdEENS_2OpIS3_NS_9op_htransEEENS_10glue_timesEEEED1Ev"
 "_ZN4arma5ProxyINS_4GlueINS_12subview_colsIdEENS_2OpINS_11subview_rowIdEENS_9op_htransEEENS_10glue_timesEEEEC1ERKSA_"
 "_ZN4arma5ProxyINS_4GlueINS_12subview_colsIdEENS_2OpINS_11subview_rowIdEENS_9op_htransEEENS_10glue_timesEEEED1Ev"
 "_ZN4arma5ProxyINS_4GlueINS_2OpINS_11subview_rowIdEENS_9op_htransEEES4_NS_10glue_timesEEEEC1ERKS8_"
 "_ZN4arma5ProxyINS_4GlueINS_2OpINS_11subview_rowIdEENS_9op_htransEEES4_NS_10glue_timesEEEED1Ev"
 "_ZN4arma5ProxyINS_4GlueINS_3ColIdEENS_2OpIS3_NS_9op_htransEEENS_10glue_timesEEEEC1ERKS8_"
 "_ZN4arma5ProxyINS_4GlueINS_3ColIdEENS_2OpIS3_NS_9op_htransEEENS_10glue_timesEEEED1Ev"
 "_ZN4arma5ProxyINS_4GlueINS_5eGlueINS_11subview_colIdEENS_3eOpIS4_NS_16eop_scalar_timesEEENS_11eglue_minusEEENS_2OpIS9_NS_9op_htransEEENS_10glue_timesEEEEC1ERKSE_"
 "_ZN4arma5ProxyINS_4GlueINS_5eGlueINS_11subview_colIdEENS_3eOpIS4_NS_16eop_scalar_timesEEENS_11eglue_minusEEENS_2OpIS9_NS_9op_htransEEENS_10glue_timesEEEED1Ev"
 "_ZN4arma5ProxyINS_4GlueINS_5eGlueINS_2OpINS_11subview_rowIdEENS_9op_htransEEENS3_IS5_NS_10op_htrans2EEENS_11eglue_minusEEENS3_ISB_S6_EENS_10glue_timesEEEEC1ERKSE_"
 "_ZN4arma5ProxyINS_4GlueINS_5eGlueINS_2OpINS_11subview_rowIdEENS_9op_htransEEENS3_IS5_NS_10op_htrans2EEENS_11eglue_minusEEENS3_ISB_S6_EENS_10glue_timesEEEED1Ev"
 "_ZN4arma5ProxyINS_4GlueINS1_INS_11subview_rowIdEENS_3MatIdEENS_10glue_timesEEENS_2OpIS3_NS_9op_htransEEES6_EEEC1ERKSB_"
 "_ZN4arma5ProxyINS_4GlueINS1_INS_11subview_rowIdEENS_3MatIdEENS_10glue_timesEEENS_2OpIS3_NS_9op_htransEEES6_EEED1Ev"
 "_ZN4arma5ProxyINS_4mtOpIjNS1_IjNS_11subview_rowIdEENS_9op_rel_eqEEENS_14op_find_simpleEEEEC1ERKS7_"
 "_ZN4arma5ProxyINS_4mtOpIjNS1_IjNS_11subview_rowIdEENS_9op_rel_eqEEENS_14op_find_simpleEEEED1Ev"
 "_ZN4arma5ProxyINS_4mtOpIjNS1_IjNS_2OpINS_11subview_rowIdEENS_9op_htransEEENS_9op_rel_eqEEENS_14op_find_simpleEEEEC1ERKSA_"
 "_ZN4arma5ProxyINS_4mtOpIjNS1_IjNS_2OpINS_11subview_rowIdEENS_9op_htransEEENS_9op_rel_eqEEENS_14op_find_simpleEEEED1Ev"
 "_ZN4arma5ProxyINS_4mtOpIjNS1_IjNS_3ColIdEENS_9op_rel_eqEEENS_14op_find_simpleEEEEC1ERKS7_"
 "_ZN4arma5ProxyINS_4mtOpIjNS1_IjNS_3ColIdEENS_9op_rel_eqEEENS_14op_find_simpleEEEED1Ev"
 "_ZN4arma5ProxyINS_5eGlueINS_11subview_colIdEENS_3eOpIS3_NS_16eop_scalar_timesEEENS_11eglue_minusEEEEC1ERKS8_"
 "_ZN4arma5ProxyINS_5eGlueINS_2OpINS_11subview_rowIdEENS_9op_htransEEENS2_IS4_NS_10op_htrans2EEENS_11eglue_minusEEEEC1ERKSA_"
 "_ZN4arma5ProxyINS_5eGlueINS_3ColIdEES3_NS_11eglue_minusEEEEC1ERKS5_"
 "_ZN4arma5ProxyINS_5eGlueINS_3eOpINS_3ColIdEENS_16eop_scalar_timesEEENS_11subview_colIdEENS_10eglue_plusEEEEC1ERKSA_"
 "_ZN4arma5ProxyINS_5eGlueINS_3eOpINS_3ColIdEENS_16eop_scalar_timesEEENS_2OpINS_11subview_rowIdEENS_9op_htransEEENS_10eglue_plusEEEEC1ERKSD_"
 "_ZN4arma5ProxyINS_5eGlueINS_3eOpINS2_INS2_INS_3ColIdEENS_7eop_negEEENS_15eop_scalar_plusEEENS_7eop_logEEESA_NS_11eglue_minusEEEEC1ERKSC_"
 "_ZN4arma5ProxyINS_5eGlueINS_3MatIdEENS_4GlueINS_11subview_colIdEENS_2OpIS6_NS_9op_htransEEENS_10glue_timesEEENS_10eglue_plusEEEEC1ERKSD_"
 "_ZN4arma5ProxyINS_5eGlueINS_3MatIdEENS_4GlueINS_2OpINS_11subview_rowIdEENS_9op_htransEEES7_NS_10glue_timesEEENS_10eglue_plusEEEEC1ERKSD_"
 "_ZN4arma5ProxyINS_5eGlueINS1_INS_3eOpINS_3ColIdEENS_16eop_scalar_timesEEENS_11subview_colIdEENS_10eglue_plusEEENS2_INS_2OpINS_3MatIdEENS_6op_sumEEES5_EES9_EEEC1ERKSH_"
 "_ZN4arma5ProxyINS_5eGlueINS1_INS_3eOpINS_3ColIdEENS_16eop_scalar_timesEEENS_2OpINS_11subview_rowIdEENS_9op_htransEEENS_10eglue_plusEEENS2_INS7_INS_3MatIdEENS_6op_sumEEES5_EESC_EEEC1ERKSJ_"
 "_ZN4arma5ProxyINS_5eGlueINS1_INS_3MatIdEENS_4GlueINS_11subview_colIdEENS_2OpIS6_NS_9op_htransEEENS_10glue_timesEEENS_10eglue_plusEEENS_3eOpINS4_INS_3ColIdEENS7_ISG_S8_EESA_EENS_16eop_scalar_timesEEESC_EEEC1ERKSL_"
 "_ZN4arma5ProxyINS_5eGlueINS1_INS_3MatIdEENS_4GlueINS_11subview_colIdEENS_2OpIS6_NS_9op_htransEEENS_10glue_timesEEENS_10eglue_plusEEES3_SC_EEEC1ERKSE_"
 "_ZN4arma5ProxyINS_5eGlueINS1_INS_3MatIdEENS_4GlueINS_2OpINS_11subview_rowIdEENS_9op_htransEEES7_NS_10glue_timesEEENS_10eglue_plusEEENS_3eOpINS4_INS_3ColIdEENS5_ISG_S8_EESA_EENS_16eop_scalar_timesEEESC_EEEC1ERKSL_"
 "_ZN4arma5ProxyINS_5eGlueINS1_INS_3MatIdEENS_4GlueINS_2OpINS_11subview_rowIdEENS_9op_htransEEES7_NS_10glue_timesEEENS_10eglue_plusEEES3_SC_EEEC1ERKSE_"
 "_ZN4arma5ProxyINS_5eGlueINS1_INS1_INS_3MatIdEENS_4GlueINS_11subview_colIdEENS_2OpIS6_NS_9op_htransEEENS_10glue_timesEEENS_10eglue_plusEEES3_SC_EENS_3eOpINS4_INS_3ColIdEENS7_ISH_S8_EESA_EENS_16eop_scalar_timesEEESC_EEEC1ERKSM_"
 "_ZN4arma5ProxyINS_5eGlueINS1_INS1_INS_3MatIdEENS_4GlueINS_2OpINS_11subview_rowIdEENS_9op_htransEEES7_NS_10glue_timesEEENS_10eglue_plusEEES3_SC_EENS_3eOpINS4_INS_3ColIdEENS5_ISH_S8_EESA_EENS_16eop_scalar_timesEEESC_EEEC1ERKSM_"
 "_ZN4arma5randgEjRKNS_11distr_paramE"
 "_ZN4arma5randgINS_3ColIdEEEET_jjRKNS_11distr_paramEPKNS_21arma_Mat_Col_Row_onlyIS3_E6resultE"
 "_ZN4arma5randiEjRKNS_11distr_paramE"
 "_ZN4arma5randiINS_3ColIiEEEET_jjRKNS_11distr_paramEPKNS_21arma_Mat_Col_Row_onlyIS3_E6resultE"
 "_ZN4arma5randnEv"
 "_ZN4arma5randuEv"
 "_ZN4arma6access2rwIdEERT_RKS2_"
 "_ZN4arma6access2rwIiEERT_RKS2_"
 "_ZN4arma6access2rwIjEERT_RKS2_"
 "_ZN4arma6access2rwIPKdEERT_RKS4_"
 "_ZN4arma6access2rwIPKiEERT_RKS4_"
 "_ZN4arma6access2rwIPKjEERT_RKS4_"
 "_ZN4arma6access2rwItEERT_RKS2_"
 "_ZN4arma6auxlib3detIdEEbRT_RNS_3MatIS2_EE"
 "_ZN4arma6lapack5getrfIdEEvPiS2_PT_S2_S2_S2_"
 "_ZN4arma6memory7acquireIdEEPT_j"
 "_ZN4arma6memory7acquireIiEEPT_j"
 "_ZN4arma6memory7acquireIjEEPT_j"
 "_ZN4arma6op_det12apply_directINS_3MatIdEEEEbRNT_9elem_typeERKNS_4BaseIS5_S4_EE"
 "_ZN4arma6op_det12apply_trimatINS_3MatIdEEEENT_9elem_typeERKNS_4BaseIS5_S4_EE"
 "_ZN4arma6op_det13apply_diagmatINS_3MatIdEEEENT_9elem_typeERKNS_4BaseIS5_S4_EE"
 "_ZN4arma6op_det14apply_tiny_2x2IdEET_RKNS_3MatIS2_EE"
 "_ZN4arma6op_det14apply_tiny_3x3IdEET_RKNS_3MatIS2_EE"
 "_ZN4arma6op_dot10direct_dotIdEENS_14arma_real_onlyIT_E6resultEjPKS3_S7_"
 "_ZN4arma6op_max10direct_maxIdEET_PKS2_j"
 "_ZN4arma6op_max3maxIdEET_RKNS_7subviewIS2_EE"
 "_ZN4arma6op_max3maxINS_3MatIdEEEENS_11arma_not_cxINT_9elem_typeEE6resultERKNS_4BaseIS6_S5_EE"
 "_ZN4arma6op_max3maxINS_4mtOpIjNS2_IjNS_11subview_rowIdEENS_9op_rel_eqEEENS_14op_find_simpleEEEEENS_11arma_not_cxINT_9elem_typeEE6resultERKNS_4BaseISB_SA_EE"
 "_ZN4arma6op_min3minINS_4mtOpIjNS2_IjNS_11subview_rowIdEENS_9op_rel_eqEEENS_14op_find_simpleEEEEENS_11arma_not_cxINT_9elem_typeEE6resultERKNS_4BaseISB_SA_EE"
 "_ZN4arma6op_min3minINS_4mtOpIjNS2_IjNS_3ColIdEENS_9op_rel_eqEEENS_14op_find_simpleEEEEENS_11arma_not_cxINT_9elem_typeEE6resultERKNS_4BaseISB_SA_EE"
 "_ZN4arma6op_sum13apply_noaliasINS_3MatIdEEEEvRNS2_INT_9elem_typeEEERKNS_5ProxyIS4_EEj"
 "_ZN4arma6op_sum20apply_noalias_unwrapINS_3MatIdEEEEvRNS2_INT_9elem_typeEEERKNS_5ProxyIS4_EEj"
 "_ZN4arma6op_sum5applyINS_3MatIdEEEEvRNS2_INT_9elem_typeEEERKNS_2OpIS4_S0_EE"
 "_ZN4arma6unwrapINS_3ColIdEEEC1ERKS2_"
 "_ZN4arma6unwrapINS_3MatIdEEEC1ERKS2_"
 "_ZN4arma7op_find6helperINS_11subview_rowIdEENS_9op_rel_eqEEEjRNS_3MatIjEERKNS_4mtOpIjT_T0_EEPKNS_16arma_op_rel_onlyISA_E6resultEPKNS_11arma_not_cxINS9_9elem_typeEE6resultE"
 "_ZN4arma7op_find6helperINS_2OpINS_11subview_rowIdEENS_9op_htransEEENS_9op_rel_eqEEEjRNS_3MatIjEERKNS_4mtOpIjT_T0_EEPKNS_16arma_op_rel_onlyISD_E6resultEPKNS_11arma_not_cxINSC_9elem_typeEE6resultE"
 "_ZN4arma7op_find6helperINS_3ColIdEENS_9op_rel_eqEEEjRNS_3MatIjEERKNS_4mtOpIjT_T0_EEPKNS_16arma_op_rel_onlyISA_E6resultEPKNS_11arma_not_cxINS9_9elem_typeEE6resultE"
 "_ZN4arma7subviewIdE10inplace_opINS_15op_internal_equEEEvRKS1_PKc"
 "_ZN4arma7subviewIdE10inplace_opINS_15op_internal_equENS_2OpINS_3ColIdEENS_9op_htransEEEEEvRKNS_4BaseIdT0_EEPKc"
 "_ZN4arma7subviewIdE10inplace_opINS_15op_internal_equENS_3MatIdEEEEvRKNS_4BaseIdT0_EEPKc"
 "_ZN4arma7subviewIdE10inplace_opINS_15op_internal_equENS_5eGlueINS_11subview_colIdEENS_3eOpIS6_NS_16eop_scalar_timesEEENS_11eglue_minusEEEEEvRKNS_4BaseIdT0_EEPKc"
 "_ZN4arma7subviewIdE10inplace_opINS_15op_internal_equENS_5eGlueINS_2OpINS_11subview_rowIdEENS_9op_htransEEENS5_IS7_NS_10op_htrans2EEENS_11eglue_minusEEEEEvRKNS_4BaseIdT0_EEPKc"
 "_ZN4arma7subviewIdE12row_iteratorC1ERKS2_"
 "_ZN4arma7subviewIdE12row_iteratorC1ERS1_jj"
 "_ZN4arma7subviewIdE12row_iteratordeEv"
 "_ZN4arma7subviewIdE12row_iteratorppEv"
 "_ZN4arma7subviewIdE3colEj"
 "_ZN4arma7subviewIdE4colsEjj"
 "_ZN4arma7subviewIdE7extractERNS_3MatIdEERKS1_"
 "_ZN4arma7subviewIdEaSERKS1_"
 "_ZN4arma7subviewIdEaSINS_2OpINS_3ColIdEENS_9op_htransEEEEEvRKNS_4BaseIdT_EE"
 "_ZN4arma7subviewIdEaSINS_3MatIdEEEEvRKNS_4BaseIdT_EE"
 "_ZN4arma7subviewIdEaSINS_5eGlueINS_11subview_colIdEENS_3eOpIS5_NS_16eop_scalar_timesEEENS_11eglue_minusEEEEEvRKNS_4BaseIdT_EE"
 "_ZN4arma7subviewIdEaSINS_5eGlueINS_2OpINS_11subview_rowIdEENS_9op_htransEEENS4_IS6_NS_10op_htrans2EEENS_11eglue_minusEEEEEvRKNS_4BaseIdT_EE"
 "_ZN4arma7subviewIdED1Ev"
 "_ZN4arma7subviewIdED2Ev"
 "_ZN4arma8arma_rng5randgIdE4fillEPdjdd"
 "_ZN4arma8arma_rng5randiIiE4fillEPijii"
 "_ZN4arma8arma_rng5randiIiE7max_valEv"
 "_ZN4arma8arma_rng5randiIyEcvyEv"
 "_ZN4arma8arma_rng5randuIdEcvdEv"
 "_ZN4arma8arma_str11char_buffer8set_sizeEj"
 "_ZN4arma8arma_str11char_bufferC1Ev"
 "_ZN4arma8arma_str11char_bufferD1Ev"
 "_ZN4arma8arma_str3strIcEENSt7__cxx1112basic_stringIcSt11char_traitsIcESaIcEEERKNS0_12basic_formatINS0_6formatET_EE"
 "_ZN4arma8arma_str3strIjEENSt7__cxx1112basic_stringIcSt11char_traitsIcESaIcEEERKNS0_12basic_formatINS0_6formatET_EE"
 "_ZN4arma8arma_str3strIjjjjEENSt7__cxx1112basic_stringIcSt11char_traitsIcESaIcEEERKNS0_12basic_formatINS8_INS8_INS8_INS0_6formatET_EET0_EET1_EET2_EE"
 "_ZN4arma8arma_str3strIjjjjjjEENSt7__cxx1112basic_stringIcSt11char_traitsIcESaIcEEERKNS0_12basic_formatINS8_INS8_INS8_INS8_INS8_INS0_6formatET_EET0_EET1_EET2_EET3_EET4_EE"
 "_ZN4arma8arma_strlsINS0_12basic_formatINS2_INS2_INS0_6formatEjEEjEEjEEjEERSoS7_RKNS2_IT_T0_EE"
 "_ZN4arma8arma_strlsINS0_12basic_formatINS2_INS2_INS2_INS2_INS0_6formatEjEEjEEjEEjEEjEEjEERSoS9_RKNS2_IT_T0_EE"
 "_ZN4arma8arma_strlsINS0_6formatEcEERSoS3_RKNS0_12basic_formatIT_T0_EE"
 "_ZN4arma8arma_strlsINS0_6formatEjEERSoS3_RKNS0_12basic_formatIT_T0_EE"
 "_ZN4arma8arrayops10accumulateIdEET_PKS2_j"
 "_ZN4arma8arrayops10fill_zerosIdEEvPT_j"
 "_ZN4arma8arrayops11inplace_setIdEEvPT_S2_j"
 "_ZN4arma8arrayops12inplace_plusIdEEvPT_PKS2_j"
 "_ZN4arma8arrayops13inplace_minusIdEEvPT_S2_j"
 "_ZN4arma8arrayops16inplace_set_baseIdEEvPT_S2_j"
 "_ZN4arma8arrayops17inplace_plus_baseIdEEvPT_PKS2_j"
 "_ZN4arma8arrayops18inplace_minus_baseIdEEvPT_S2_j"
 "_ZN4arma8arrayops18inplace_set_simpleIdEEvPT_S2_j"
 "_ZN4arma8diagviewIdE4fillEd"
 "_ZN4arma8diagviewIdED1Ev"
 "_ZN4arma8eop_coreINS_16eop_scalar_timesEE5applyINS_3MatIdEENS_3eOpINS6_INS6_INS_4GlueINS7_INS_11subview_rowIdEES5_NS_10glue_timesEEENS_2OpIS9_NS_9op_htransEEESA_EENS_21eop_scalar_minus_postEEENS_15eop_scalar_plusEEENS_7eop_logEEEEEvRT_RKNS6_IT0_S1_EE"
 "_ZN4arma8eop_coreINS_16eop_scalar_timesEE5applyINS_3MatIdEENS_5eGlueINS_3eOpINS_3ColIdEES1_EENS_11subview_colIdEENS_10eglue_plusEEEEEvRT_RKNS7_IT0_S1_EE"
 "_ZN4arma8eop_coreINS_16eop_scalar_timesEE5applyINS_3MatIdEENS_5eGlueINS_3eOpINS_3ColIdEES1_EENS_2OpINS_11subview_rowIdEENS_9op_htransEEENS_10eglue_plusEEEEEvRT_RKNS7_IT0_S1_EE"
 "_ZN4arma8eop_coreINS_16eop_scalar_timesEE5applyINS_3MatIdEENS_5eGlueINS6_INS_3eOpINS_3ColIdEES1_EENS_11subview_colIdEENS_10eglue_plusEEENS7_INS_2OpIS5_NS_6op_sumEEES1_EESD_EEEEvRT_RKNS7_IT0_S1_EE"
 "_ZN4arma8eop_coreINS_16eop_scalar_timesEE5applyINS_3MatIdEENS_5eGlueINS6_INS_3eOpINS_3ColIdEES1_EENS_2OpINS_11subview_rowIdEENS_9op_htransEEENS_10eglue_plusEEENS7_INSB_IS5_NS_6op_sumEEES1_EESG_EEEEvRT_RKNS7_IT0_S1_EE"
 "_ZN4arma8eop_coreINS_19eop_scalar_div_postEE5applyINS_3MatIdEENS_3ColIdEEEEvRT_RKNS_3eOpIT0_S1_EE"
 "_ZN4arma8eop_coreINS_19eop_scalar_div_postEE5applyINS_3MatIdEES5_EEvRT_RKNS_3eOpIT0_S1_EE"
 "_ZN4arma8eop_coreINS_21eop_scalar_minus_postEE5applyINS_3MatIdEENS_3ColIdEEEEvRT_RKNS_3eOpIT0_S1_EE"
 "_ZN4arma8eop_coreINS_21eop_scalar_minus_postEE5applyINS_3MatIdEENS_5eGlueINS_3ColIdEES8_NS_11eglue_minusEEEEEvRT_RKNS_3eOpIT0_S1_EE"
 "_ZN4arma8eop_coreINS_7eop_logEE5applyINS_3MatIdEENS_3ColIdEEEEvRT_RKNS_3eOpIT0_S1_EE"
 "_ZN4arma8linspaceINS_3ColIdEEEENS_10enable_if2IXsrNS_6is_MatIT_EE5valueES5_E6resultENS5_8pod_typeES9_j"
 "_ZN4arma8podarrayIdE9init_coldEj"
 "_ZN4arma8podarrayIdED1Ev"
 "_ZN4arma8podarrayIiE9init_coldEj"
 "_ZN4arma8podarrayIiED1Ev"
 "_ZN4arma8regspaceEdd"
 "_ZN4arma8regspaceINS_3ColIdEEEENS_10enable_if2IXsrNS_6is_MatIT_EE5valueES5_E6resultENS5_8pod_typeES9_"
 "_ZN4arma8syrk_vecILb0ELb0ELb0EE5applyIdNS_3ColIdEEEEvRNS_3MatIT_EERKT0_S6_S6_"
 "_ZN4arma8syrk_vecILb0ELb0ELb0EE5applyIdNS_3MatIdEEEEvRNS3_IT_EERKT0_S5_S5_"
 "_ZN4arma8syrk_vecILb1ELb0ELb0EE5applyIdNS_3RowIdEEEEvRNS_3MatIT_EERKT0_S6_S6_"
 "_ZN4arma9arma_warnIA78_cEEvjRKT_"
 "_ZN4arma9as_scalarINS_3MatIdEEEENT_9elem_typeERKNS_4BaseIS4_S3_EE"
 "_ZN4arma9op_cumsum13apply_noaliasIdEEvRNS_3MatIT_EERKS4_j"
 "_ZN4arma9op_htrans5applyINS_11subview_rowIdEEEEvRNS_3MatINT_9elem_typeEEERKNS_2OpIS5_S0_EEPKNS_11arma_not_cxIS6_E6resultE"
 "_ZN4arma9op_htrans5applyINS_3ColIdEEEEvRNS_3MatINT_9elem_typeEEERKNS_2OpIS5_S0_EEPKNS_11arma_not_cxIS6_E6resultE"
 "_ZN4arma9op_htrans5applyINS_3MatIdEEEEvRNS2_INT_9elem_typeEEERKNS_2OpIS4_S0_EEPKNS_11arma_not_cxIS5_E6resultE"
 "_ZN4arma9op_resize17apply_mat_inplaceIdEEvRNS_3MatIT_EEjj"
 "_ZN4arma9op_resize17apply_mat_noaliasIdEEvRNS_3MatIT_EERKS4_jj"
 "_ZN4arma9op_strans11apply_proxyINS_11subview_rowIdEEEEvRNS_3MatINT_9elem_typeEEERKNS_5ProxyIS5_EE"
 "_ZN4arma9op_strans12apply_directINS_11subview_rowIdEEEEvRNS_3MatINT_9elem_typeEEERKS5_"
 "_ZN4arma9op_strans12apply_directINS_3ColIdEEEEvRNS_3MatINT_9elem_typeEEERKS5_"
 "_ZN4arma9op_strans12apply_directINS_3MatIdEEEEvRNS2_INT_9elem_typeEEERKS4_"
 "_ZN4arma9op_strans12block_workerIdEEvPT_PKS2_jjjj"
 "_ZN4arma9op_strans17apply_mat_inplaceIdEEvRNS_3MatIT_EE"
 "_ZN4arma9op_strans17apply_mat_noaliasIdNS_3ColIdEEEEvRNS_3MatIT_EERKT0_"
 "_ZN4arma9op_strans17apply_mat_noaliasIdNS_3MatIdEEEEvRNS2_IT_EERKT0_"
 "_ZN4arma9op_strans23apply_mat_noalias_largeIdEEvRNS_3MatIT_EERKS4_"
 "_ZN4arma9op_strans24apply_mat_noalias_tinysqIdNS_3ColIdEEEEvRNS_3MatIT_EERKT0_"
 "_ZN4arma9op_strans24apply_mat_noalias_tinysqIdNS_3MatIdEEEEvRNS2_IT_EERKT0_"
 "_ZN4arma9op_strans9apply_matIdNS_3ColIdEEEEvRNS_3MatIT_EERKT0_"
 "_ZN4arma9op_strans9apply_matIdNS_3MatIdEEEEvRNS2_IT_EERKT0_"
 "_ZN4arma9syrk_emulILb0ELb0ELb0EE5applyIdNS_3ColIdEEEEvRNS_3MatIT_EERKT0_S6_S6_"
 "_ZN4arma9syrk_emulILb0ELb0ELb0EE5applyIdNS_3MatIdEEEEvRNS3_IT_EERKT0_S5_S5_"
 "_ZN4arma9syrk_emulILb1ELb0ELb0EE5applyIdNS_3MatIdEEEEvRNS3_IT_EERKT0_S5_S5_"
 "_ZN4arma9syrk_emulILb1ELb0ELb0EE5applyIdNS_3RowIdEEEEvRNS_3MatIT_EERKT0_S6_S6_"
 "_ZN4armaeqINS_11subview_colIdEES2_EENS_10enable_if2IXaasrNS_12is_arma_typeIT_EE5valuesrNS4_IT0_EE5valueEKNS_6mtGlueIjS5_S7_NS_11glue_rel_eqEEEE6resultERKS5_RKS7_"
 "_ZN4armaeqINS_11subview_rowIdEEEENS_10enable_if2IXsrNS_12is_arma_typeIT_EE5valueEKNS_4mtOpIjS5_NS_9op_rel_eqEEEE6resultERKS5_NS5_9elem_typeE"
 "_ZN4armaeqINS_2OpINS_11subview_rowIdEENS_9op_htransEEEEENS_10enable_if2IXsrNS_12is_arma_typeIT_EE5valueEKNS_4mtOpIjS8_NS_9op_rel_eqEEEE6resultERKS8_NS8_9elem_typeE"
 "_ZN4armaeqINS_3ColIdEEEENS_10enable_if2IXsrNS_12is_arma_typeIT_EE5valueEKNS_4mtOpIjS5_NS_9op_rel_eqEEEE6resultERKS5_NS5_9elem_typeE"
 "_ZN4Rcpp10RstreambufILb0EE4syncEv"
 "_ZN4Rcpp10RstreambufILb0EE6xsputnEPKcx"
 "_ZN4Rcpp10RstreambufILb0EE8overflowEi"
 "_ZN4Rcpp10RstreambufILb0EEC1Ev"
 "_ZN4Rcpp10RstreambufILb0EED0Ev"
 "_ZN4Rcpp10RstreambufILb0EED1Ev"
 "_ZN4Rcpp10RstreambufILb1EE4syncEv"
 "_ZN4Rcpp10RstreambufILb1EE6xsputnEPKcx"
 "_ZN4Rcpp10RstreambufILb1EE8overflowEi"
 "_ZN4Rcpp10RstreambufILb1EEC1Ev"
 "_ZN4Rcpp10RstreambufILb1EED0Ev"
 "_ZN4Rcpp10RstreambufILb1EED1Ev"
 "_ZN4Rcpp12Rcpp_protectEP7SEXPREC"
 "_ZN4Rcpp12RObject_ImplINS_15PreserveStorageEE6updateEP7SEXPREC"
 "_ZN4Rcpp12RObject_ImplINS_15PreserveStorageEEC1EP7SEXPREC"
 "_ZN4Rcpp12RObject_ImplINS_15PreserveStorageEED1Ev"
 "_ZN4Rcpp13RcppArmadillo9arma_wrapIN4arma3ColIdEEEEP7SEXPRECRKT_RKNS_9DimensionE"
 "_ZN4Rcpp13RcppArmadillo9arma_wrapIN4arma3MatIdEEEEP7SEXPRECRKT_RKNS_9DimensionE"
 "_ZN4Rcpp13RcppArmadillo9arma_wrapIN4arma4CubeIdEEEEP7SEXPRECRKT_RKNS_9DimensionE"
 "_ZN4Rcpp14not_compatibleC1IJiEEEPKcDpOT_"
 "_ZN4Rcpp14not_compatibleD0Ev"
 "_ZN4Rcpp14not_compatibleD1Ev"
 "_ZN4Rcpp14Rcpp_unprotectEi"
 "_ZN4Rcpp15PreserveStorageINS_12RObject_ImplIS0_EEE5set__EP7SEXPREC"
 "_ZN4Rcpp15PreserveStorageINS_12RObject_ImplIS0_EEEC2Ev"
 "_ZN4Rcpp15PreserveStorageINS_12RObject_ImplIS0_EEED2Ev"
 "_ZN4Rcpp15PreserveStorageINS_6VectorILi19ES0_EEE5set__EP7SEXPREC"
 "_ZN4Rcpp15PreserveStorageINS_6VectorILi19ES0_EEEC2Ev"
 "_ZN4Rcpp15PreserveStorageINS_6VectorILi19ES0_EEED2Ev"
 "_ZN4Rcpp16wrap_extra_stepsIdEEP7SEXPRECS2_"
 "_ZN4Rcpp16wrap_extra_stepsIiEEP7SEXPRECS2_"
 "_ZN4Rcpp18checkUserInterruptEv"
 "_ZN4Rcpp19index_out_of_boundsC1IJEEEPKcDpOT_"
 "_ZN4Rcpp19index_out_of_boundsC1IJRKNSt7__cxx1112basic_stringIcSt11char_traitsIcESaIcEEEEEEPKcDpOT_"
 "_ZN4Rcpp19index_out_of_boundsD0Ev"
 "_ZN4Rcpp19index_out_of_boundsD1Ev"
 "_ZN4Rcpp20AttributeProxyPolicyINS_12RObject_ImplINS_15PreserveStorageEEEE14AttributeProxy3setEP7SEXPREC"
 "_ZN4Rcpp20AttributeProxyPolicyINS_12RObject_ImplINS_15PreserveStorageEEEE14AttributeProxyaSINS_9DimensionEEERS5_RKT_"
 "_ZN4Rcpp20AttributeProxyPolicyINS_12RObject_ImplINS_15PreserveStorageEEEE14AttributeProxyC1ERS3_RKNSt7__cxx1112basic_stringIcSt11char_traitsIcESaIcEEE"
 "_ZN4Rcpp20AttributeProxyPolicyINS_12RObject_ImplINS_15PreserveStorageEEEE4attrERKNSt7__cxx1112basic_stringIcSt11char_traitsIcESaIcEEE"
 "_ZN4Rcpp20AttributeProxyPolicyINS_6VectorILi19ENS_15PreserveStorageEEEE14AttributeProxy3setEP7SEXPREC"
 "_ZN4Rcpp20AttributeProxyPolicyINS_6VectorILi19ENS_15PreserveStorageEEEE14AttributeProxyaSINS_6ShieldIP7SEXPRECEEEERS5_RKT_"
 "_ZN4Rcpp20AttributeProxyPolicyINS_6VectorILi19ENS_15PreserveStorageEEEE14AttributeProxyC1ERS3_RKNSt7__cxx1112basic_stringIcSt11char_traitsIcESaIcEEE"
 "_ZN4Rcpp20AttributeProxyPolicyINS_6VectorILi19ENS_15PreserveStorageEEEE4attrERKNSt7__cxx1112basic_stringIcSt11char_traitsIcESaIcEEE"
 "_ZN4Rcpp20Rcpp_precious_removeEP7SEXPREC"
 "_ZN4Rcpp20Rcpp_PreciousReleaseEP7SEXPREC"
 "_ZN4Rcpp21Rcpp_PreciousPreserveEP7SEXPREC"
 "_ZN4Rcpp22Rcpp_precious_preserveEP7SEXPREC"
 "_ZN4Rcpp2asIiEET_P7SEXPREC"
 "_ZN4Rcpp2asIN4arma3ColIdEEEET_P7SEXPREC"
 "_ZN4Rcpp4stopERKNSt7__cxx1112basic_stringIcSt11char_traitsIcESaIcEEE"
 "_ZN4Rcpp4stopIJEEEvPKcDpOT_"
 "_ZN4Rcpp4wrapIdEEP7SEXPRECRKN4arma3ColIT_EE"
 "_ZN4Rcpp4wrapIdEEP7SEXPRECRKN4arma3MatIT_EE"
 "_ZN4Rcpp4wrapIdEEP7SEXPRECRKN4arma4CubeIT_EE"
 "_ZN4Rcpp4wrapIdEEP7SEXPRECRKT_"
 "_ZN4Rcpp4wrapIiEEP7SEXPRECRKT_"
 "_ZN4Rcpp4wrapIN9__gnu_cxx17__normal_iteratorIPKiSt6vectorIiSaIiEEEEEEP7SEXPRECT_SB_"
 "_ZN4Rcpp4wrapINS_6ShieldIP7SEXPRECEEEES3_RKT_"
 "_ZN4Rcpp4wrapINS_9DimensionEEEP7SEXPRECRKT_"
 "_ZN4Rcpp4wrapIPKdEEP7SEXPRECT_S5_"
 "_ZN4Rcpp5NamedERKNSt7__cxx1112basic_stringIcSt11char_traitsIcESaIcEEE"
 "_ZN4Rcpp6r_castILi13EEEP7SEXPRECS2_"
 "_ZN4Rcpp6r_castILi14EEEP7SEXPRECS2_"
 "_ZN4Rcpp6ShieldIP7SEXPRECEC1ES2_"
 "_ZN4Rcpp6ShieldIP7SEXPRECED1Ev"
 "_ZN4Rcpp6traits11proxy_cacheILi19ENS_15PreserveStorageEE3refEx"
 "_ZN4Rcpp6traits11proxy_cacheILi19ENS_15PreserveStorageEE6updateERKNS_6VectorILi19ES2_EE"
 "_ZN4Rcpp6traits11proxy_cacheILi19ENS_15PreserveStorageEEC1Ev"
 "_ZN4Rcpp6traits11proxy_cacheILi19ENS_15PreserveStorageEED1Ev"
 "_ZN4Rcpp6traits12named_objectIN4arma3ColIdEEEC1ERKNSt7__cxx1112basic_stringIcSt11char_traitsIcESaIcEEERKS4_"
 "_ZN4Rcpp6traits16IndexingExporterIN4arma3ColIdEEdE3getEv"
 "_ZN4Rcpp6traits16IndexingExporterIN4arma3ColIdEEdEC2EP7SEXPREC"
 "_ZN4Rcpp6traits16IndexingExporterIN4arma3ColIdEEdED2Ev"
 "_ZN4Rcpp6traits8ExporterIN4arma3ColIdEEEC1EP7SEXPREC"
 "_ZN4Rcpp6traits8ExporterIN4arma3ColIdEEED1Ev"
 "_ZN4Rcpp6VectorILi19ENS_15PreserveStorageEE15replace_elementINS_6traits12named_objectIN4arma3ColIdEEEEEEvNS_8internal14Proxy_IteratorINSA_13generic_proxyILi19ES1_EEEEP7SEXPRECxRKT_"
 "_ZN4Rcpp6VectorILi19ENS_15PreserveStorageEE16create__dispatchINS_6traits12named_objectIN4arma3ColIdEEEES9_EES2_NS4_17integral_constantIbLb1EEERKT_RKT0_"
 "_ZN4Rcpp6VectorILi19ENS_15PreserveStorageEE20push_back_name__implERKP7SEXPRECRKNSt7__cxx1112basic_stringIcSt11char_traitsIcESaIcEEENS_6traits17integral_constantIbLb1EEE"
 "_ZN4Rcpp6VectorILi19ENS_15PreserveStorageEE25replace_element__dispatchINS_6traits12named_objectIN4arma3ColIdEEEEEEvNS4_17integral_constantIbLb1EEENS_8internal14Proxy_IteratorINSC_13generic_proxyILi19ES1_EEEEP7SEXPRECxRKT_"
 "_ZN4Rcpp6VectorILi19ENS_15PreserveStorageEE37replace_element__dispatch__isArgumentINS_6traits12named_objectIN4arma3ColIdEEEEEEvNS4_17integral_constantIbLb0EEENS_8internal14Proxy_IteratorINSC_13generic_proxyILi19ES1_EEEEP7SEXPRECxRKT_"
 "_ZN4Rcpp6VectorILi19ENS_15PreserveStorageEE3endEv"
 "_ZN4Rcpp6VectorILi19ENS_15PreserveStorageEE4initEv"
 "_ZN4Rcpp6VectorILi19ENS_15PreserveStorageEE5beginEv"
 "_ZN4Rcpp6VectorILi19ENS_15PreserveStorageEE6createINS_6traits12named_objectIN4arma3ColIdEEEES9_EES2_RKT_RKT0_"
 "_ZN4Rcpp6VectorILi19ENS_15PreserveStorageEE6updateEP7SEXPREC"
 "_ZN4Rcpp6VectorILi19ENS_15PreserveStorageEE9push_backIP7SEXPRECEEvRKT_RKNSt7__cxx1112basic_stringIcSt11char_traitsIcESaIcEEE"
 "_ZN4Rcpp6VectorILi19ENS_15PreserveStorageEEC1ERKi"
 "_ZN4Rcpp6VectorILi19ENS_15PreserveStorageEEC1Ev"
 "_ZN4Rcpp6VectorILi19ENS_15PreserveStorageEEC1IxEET_PNS_6traits9enable_ifIXsrNS5_13is_arithmeticIS4_EE5valueEvE4typeE"
 "_ZN4Rcpp6VectorILi19ENS_15PreserveStorageEED1Ev"
 "_ZN4Rcpp6VectorILi19ENS_15PreserveStorageEEixERKNSt7__cxx1112basic_stringIcSt11char_traitsIcESaIcEEE"
 "_ZN4Rcpp6VectorILi19ENS_15PreserveStorageEEixEx"
 "_ZN4Rcpp8ArgumentaSIN4arma3ColIdEEEENS_6traits12named_objectIT_EERKS7_"
 "_ZN4Rcpp8ArgumentC1ERKNSt7__cxx1112basic_stringIcSt11char_traitsIcESaIcEEE"
 "_ZN4Rcpp8ArgumentD1Ev"
 "_ZN4Rcpp8internal10basic_castILi13EEEP7SEXPRECS3_"
 "_ZN4Rcpp8internal10basic_castILi14EEEP7SEXPRECS3_"
 "_ZN4Rcpp8internal10range_wrapIN9__gnu_cxx17__normal_iteratorIPKiSt6vectorIiSaIiEEEEEEP7SEXPRECT_SC_"
 "_ZN4Rcpp8internal10range_wrapIPKdEEP7SEXPRECT_S6_"
 "_ZN4Rcpp8internal11r_true_castILi13EEEP7SEXPRECS3_"
 "_ZN4Rcpp8internal11r_true_castILi14EEEP7SEXPRECS3_"
 "_ZN4Rcpp8internal12primitive_asIiEET_P7SEXPREC"
 "_ZN4Rcpp8internal13generic_proxyILi19ENS_15PreserveStorageEE3setEP7SEXPREC"
 "_ZN4Rcpp8internal13generic_proxyILi19ENS_15PreserveStorageEE4moveEx"
 "_ZN4Rcpp8internal13generic_proxyILi19ENS_15PreserveStorageEEaSEP7SEXPREC"
 "_ZN4Rcpp8internal13generic_proxyILi19ENS_15PreserveStorageEEaSERKS3_"
 "_ZN4Rcpp8internal13generic_proxyILi19ENS_15PreserveStorageEEaSINS_6ShieldIP7SEXPRECEEEERS3_RKT_"
 "_ZN4Rcpp8internal13generic_proxyILi19ENS_15PreserveStorageEEC1ERKS3_"
 "_ZN4Rcpp8internal13generic_proxyILi19ENS_15PreserveStorageEEC1ERNS_6VectorILi19ES2_EEx"
 "_ZN4Rcpp8internal13r_init_vectorILi19EEEvP7SEXPREC"
 "_ZN4Rcpp8internal13wrap_dispatchIdEEP7SEXPRECRKT_NS_6traits23wrap_type_primitive_tagE"
 "_ZN4Rcpp8internal13wrap_dispatchIiEEP7SEXPRECRKT_NS_6traits23wrap_type_primitive_tagE"
 "_ZN4Rcpp8internal13wrap_dispatchINS_6ShieldIP7SEXPRECEEEES4_RKT_NS_6traits21wrap_type_unknown_tagE"
 "_ZN4Rcpp8internal13wrap_dispatchINS_9DimensionEEEP7SEXPRECRKT_NS_6traits21wrap_type_unknown_tagE"
 "_ZN4Rcpp8internal14primitive_wrapIdEEP7SEXPRECRKT_"
 "_ZN4Rcpp8internal14primitive_wrapIiEEP7SEXPRECRKT_"
 "_ZN4Rcpp8internal14Proxy_IteratorINS0_13generic_proxyILi19ENS_15PreserveStorageEEEEC1ERKS4_"
 "_ZN4Rcpp8internal14Proxy_IteratorINS0_13generic_proxyILi19ENS_15PreserveStorageEEEEC1ERKS5_"
 "_ZN4Rcpp8internal14Proxy_IteratorINS0_13generic_proxyILi19ENS_15PreserveStorageEEEEdeEv"
 "_ZN4Rcpp8internal14Proxy_IteratorINS0_13generic_proxyILi19ENS_15PreserveStorageEEEEppEv"
 "_ZN4Rcpp8internal14r_vector_startILi13EEEPNS_6traits12storage_typeIXT_EE4typeEP7SEXPREC"
 "_ZN4Rcpp8internal14r_vector_startILi14EEEPNS_6traits12storage_typeIXT_EE4typeEP7SEXPREC"
 "_ZN4Rcpp8internal15export_indexingIN4arma3ColIdEEdEEvP7SEXPRECRT_"
 "_ZN4Rcpp8internal16NamedPlaceHolderC1Ev"
 "_ZN4Rcpp8internal16NamedPlaceHolderD1Ev"
 "_ZN4Rcpp8internal18generic_name_proxyILi19ENS_15PreserveStorageEE3setEP7SEXPREC"
 "_ZN4Rcpp8internal18generic_name_proxyILi19ENS_15PreserveStorageEEaSIdEERS3_RKT_"
 "_ZN4Rcpp8internal18generic_name_proxyILi19ENS_15PreserveStorageEEaSIiEERS3_RKT_"
 "_ZN4Rcpp8internal18generic_name_proxyILi19ENS_15PreserveStorageEEaSIN4arma3ColIdEEEERS3_RKT_"
 "_ZN4Rcpp8internal18generic_name_proxyILi19ENS_15PreserveStorageEEaSIN4arma3MatIdEEEERS3_RKT_"
 "_ZN4Rcpp8internal18generic_name_proxyILi19ENS_15PreserveStorageEEaSIN4arma4CubeIdEEEERS3_RKT_"
 "_ZN4Rcpp8internal18generic_name_proxyILi19ENS_15PreserveStorageEEC1ERNS_6VectorILi19ES2_EERKNSt7__cxx1112basic_stringIcSt11char_traitsIcESaIcEEE"
 "_ZN4Rcpp8internal18generic_name_proxyILi19ENS_15PreserveStorageEED1Ev"
 "_ZN4Rcpp8internal19range_wrap_dispatchIN9__gnu_cxx17__normal_iteratorIPKiSt6vectorIiSaIiEEEEiEEP7SEXPRECT_SC_"
 "_ZN4Rcpp8internal19range_wrap_dispatchIPKddEEP7SEXPRECT_S6_"
 "_ZN4Rcpp8internal19wrap_dispatch_eigenINS_6ShieldIP7SEXPRECEEEES4_RKT_NS_6traits17integral_constantIbLb0EEE"
 "_ZN4Rcpp8internal19wrap_dispatch_eigenINS_9DimensionEEEP7SEXPRECRKT_NS_6traits17integral_constantIbLb0EEE"
 "_ZN4Rcpp8internal20primitive_wrap__implIdEEP7SEXPRECRKT_NS_6traits20r_type_primitive_tagE"
 "_ZN4Rcpp8internal20primitive_wrap__implIiEEP7SEXPRECRKT_NS_6traits20r_type_primitive_tagE"
 "_ZN4Rcpp8internal21export_indexing__implIN4arma3ColIdEEdEEvP7SEXPRECRT_NS_6traits17integral_constantIbLb0EEE"
 "_ZN4Rcpp8internal21wrap_dispatch_unknownINS_6ShieldIP7SEXPRECEEEES4_RKT_NS_6traits17integral_constantIbLb1EEE"
 "_ZN4Rcpp8internal21wrap_dispatch_unknownINS_9DimensionEEEP7SEXPRECRKT_NS_6traits17integral_constantIbLb1EEE"
 "_ZN4Rcpp8internal25export_indexing__dispatchIN4arma3ColIdEEdEEvP7SEXPRECRT_NS_6traits20r_type_primitive_tagE"
 "_ZN4Rcpp8internal25generic_element_converterILi19EE3getEP7SEXPREC"
 "_ZN4Rcpp8internal25generic_element_converterILi19EE3getIN4arma3ColIdEEEEP7SEXPRECRKT_"
 "_ZN4Rcpp8internal26primitive_range_wrap__implIN9__gnu_cxx17__normal_iteratorIPKiSt6vectorIiSaIiEEEEiEEP7SEXPRECT_SC_NS_6traits17integral_constantIbLb0EEE"
 "_ZN4Rcpp8internal26primitive_range_wrap__implIPKddEEP7SEXPRECT_S6_NS_6traits17integral_constantIbLb0EEE"
 "_ZN4Rcpp8internal26primitive_wrap__impl__castIdEEP7SEXPRECRKT_NS_6traits17integral_constantIbLb0EEE"
 "_ZN4Rcpp8internal26primitive_wrap__impl__castIiEEP7SEXPRECRKT_NS_6traits17integral_constantIbLb0EEE"
 "_ZN4Rcpp8internal26range_wrap_dispatch___implIN9__gnu_cxx17__normal_iteratorIPKiSt6vectorIiSaIiEEEEiEEP7SEXPRECT_SC_NS_6traits20r_type_primitive_tagE"
 "_ZN4Rcpp8internal26range_wrap_dispatch___implIPKddEEP7SEXPRECT_S6_NS_6traits20r_type_primitive_tagE"
 "_ZN4Rcpp8internal2asIiEET_P7SEXPRECNS_6traits20r_type_primitive_tagE"
 "_ZN4Rcpp8internal2asIN4arma3ColIdEEEET_P7SEXPRECNS_6traits18r_type_generic_tagE"
 "_ZN4Rcpp8internal32wrap_dispatch_unknown_importableINS_6ShieldIP7SEXPRECEEEES4_RKT_NS_6traits17integral_constantIbLb0EEE"
 "_ZN4Rcpp8internal32wrap_dispatch_unknown_importableINS_9DimensionEEEP7SEXPRECRKT_NS_6traits17integral_constantIbLb0EEE"
 "_ZN4Rcpp8internal34primitive_range_wrap__impl__nocastIN9__gnu_cxx17__normal_iteratorIPKiSt6vectorIiSaIiEEEEiEEP7SEXPRECT_SC_St26random_access_iterator_tag"
 "_ZN4Rcpp8internal34primitive_range_wrap__impl__nocastIPKddEEP7SEXPRECT_S6_St26random_access_iterator_tag"
 "_ZN4Rcpp8internal6casterIiiEET0_T_"
 "_ZN4Rcpp8RostreamILb0EEC1Ev"
 "_ZN4Rcpp8RostreamILb0EED0Ev"
 "_ZN4Rcpp8RostreamILb0EED1Ev"
 "_ZN4Rcpp8RostreamILb1EEC1Ev"
 "_ZN4Rcpp8RostreamILb1EED0Ev"
 "_ZN4Rcpp8RostreamILb1EED1Ev"
 "_ZN4Rcpp9DimensionC1ERKyS2_"
 "_ZN4Rcpp9DimensionC1ERKyS2_S2_"
 "_ZN4Rcpp9DimensionD1Ev"
 "_ZN4Rcpp9exception18record_stack_traceEv"
 "_ZN4Rcpp9exceptionC1EPKcb"
 "_ZN4Rcpp9exceptionD0Ev"
 "_ZN4Rcpp9exceptionD1Ev"
 "_ZN9__gnu_cxx17__normal_iteratorIPKiSt6vectorIiSaIiEEEC1ERKS2_"
 "_ZN9__gnu_cxx17__normal_iteratorIPN4arma23arma_find_unique_packetIdEESt6vectorIS3_SaIS3_EEEC1ERKS4_"
 "_ZN9__gnu_cxx17__normal_iteratorIPN4arma23arma_find_unique_packetIdEESt6vectorIS3_SaIS3_EEEmmEv"
 "_ZN9__gnu_cxx17__normal_iteratorIPN4arma23arma_find_unique_packetIdEESt6vectorIS3_SaIS3_EEEppEv"
 "_ZN9__gnu_cxx5__ops14_Iter_comp_valIN4arma27arma_find_unique_comparatorIdEEEC1EONS0_15_Iter_comp_iterIS4_EE"
 "_ZN9__gnu_cxx5__ops14_Iter_comp_valIN4arma27arma_find_unique_comparatorIdEEEclINS_17__normal_iteratorIPNS2_23arma_find_unique_packetIdEESt6vectorIS9_SaIS9_EEEES9_EEbT_RT0_"
 "_ZN9__gnu_cxx5__ops14_Iter_less_valC1ENS0_15_Iter_less_iterE"
 "_ZN9__gnu_cxx5__ops14_Val_comp_iterIN4arma27arma_find_unique_comparatorIdEEEC1EONS0_15_Iter_comp_iterIS4_EE"
 "_ZN9__gnu_cxx5__ops14_Val_comp_iterIN4arma27arma_find_unique_comparatorIdEEEclINS2_23arma_find_unique_packetIdEENS_17__normal_iteratorIPS8_St6vectorIS8_SaIS8_EEEEEEbRT_T0_"
 "_ZN9__gnu_cxx5__ops15__val_comp_iterENS0_15_Iter_less_iterE"
 "_ZN9__gnu_cxx5__ops15__val_comp_iterIN4arma27arma_find_unique_comparatorIdEEEENS0_14_Val_comp_iterIT_EENS0_15_Iter_comp_iterIS6_EE"
 "_ZN9__gnu_cxx5__ops15_Iter_comp_iterIN4arma27arma_find_unique_comparatorIdEEEC1ES4_"
 "_ZN9__gnu_cxx5__ops15_Iter_comp_iterIN4arma27arma_find_unique_comparatorIdEEEclINS_17__normal_iteratorIPNS2_23arma_find_unique_packetIdEESt6vectorIS9_SaIS9_EEEESE_EEbT_T0_"
 "_ZN9__gnu_cxx5__ops16__iter_comp_iterIN4arma27arma_find_unique_comparatorIdEEEENS0_15_Iter_comp_iterIT_EES6_"
 "_ZN9__gnu_cxx5__ops16__iter_less_iterEv"
 "_ZN9__gnu_cxx5__ops16_Iter_equals_valIKdEC1ERS2_"
 "_ZN9__gnu_cxx5__ops16_Iter_equals_valIKdEclIPdEEbT_"
 "_ZN9__gnu_cxx5__ops16_Iter_equals_valIKiEC1ERS2_"
 "_ZN9__gnu_cxx5__ops16_Iter_equals_valIKiEclIN4arma7subviewIdE12row_iteratorEEEbT_"
 "_ZN9__gnu_cxx5__ops16_Iter_equals_valIKiEclIPdEEbT_"
 "_ZN9__gnu_cxx5__ops16_Iter_equals_valIKjEC1ERS2_"
 "_ZN9__gnu_cxx5__ops16_Iter_equals_valIKjEclIN4arma7subviewIdE12row_iteratorEEEbT_"
 "_ZN9__gnu_cxx5__ops16_Iter_equals_valIKjEclIPdEEbT_"
 "_ZN9__gnu_cxx5__ops17__iter_equals_valIKdEENS0_16_Iter_equals_valIT_EERS4_"
 "_ZN9__gnu_cxx5__ops17__iter_equals_valIKiEENS0_16_Iter_equals_valIT_EERS4_"
 "_ZN9__gnu_cxx5__ops17__iter_equals_valIKjEENS0_16_Iter_equals_valIT_EERS4_"
 "_ZN9__gnu_cxxeqIPN4arma23arma_find_unique_packetIdEESt6vectorIS3_SaIS3_EEEEbRKNS_17__normal_iteratorIT_T0_EESD_"
 "_ZN9__gnu_cxxltIPN4arma23arma_find_unique_packetIdEESt6vectorIS3_SaIS3_EEEEbRKNS_17__normal_iteratorIT_T0_EESD_"
 "_ZN9__gnu_cxxmiIPKiSt6vectorIiSaIiEEEENS_17__normal_iteratorIT_T0_E15difference_typeERKS9_SC_"
 "_ZN9__gnu_cxxmiIPN4arma23arma_find_unique_packetIdEESt6vectorIS3_SaIS3_EEEENS_17__normal_iteratorIT_T0_E15difference_typeERKSB_SE_"
 "_ZN9__gnu_cxxneIPN4arma23arma_find_unique_packetIdEESt6vectorIS3_SaIS3_EEEEbRKNS_17__normal_iteratorIT_T0_EESD_"
 "_ZNK10tinyformat6detail9FormatArg5toIntEv"
 "_ZNK10tinyformat6detail9FormatArg6formatERSoPKcS4_i"
 "_ZNK4arma11distr_param12get_int_valsERiS1_"
 "_ZNK4arma11distr_param15get_double_valsERdS1_"
 "_ZNK4arma11subview_rowIdEixEj"
 "_ZNK4arma14Base_eval_exprIdNS_4GlueINS1_INS_3MatIdEES3_NS_10glue_timesEEENS_2OpIS3_NS_9op_htransEEES4_EEE4evalEv"
 "_ZNK4arma14partial_unwrapINS_11subview_rowIdEEE8is_aliasIdEEbRKNS_3MatIT_EE"
 "_ZNK4arma14partial_unwrapINS_2OpINS_11subview_rowIdEENS_9op_htransEEEE8is_aliasIdEEbRKNS_3MatIT_EE"
 "_ZNK4arma18subview_row_stransIdE6at_altEj"
 "_ZNK4arma18subview_row_stransIdEixEj"
 "_ZNK4arma20quasi_unwrap_defaultINS_3eOpINS_3ColIdEENS_19eop_scalar_div_postEEEE8is_aliasIdEEbRKNS_3MatIT_EE"
 "_ZNK4arma22partial_unwrap_defaultINS_5eGlueINS_11subview_colIdEENS_3eOpIS3_NS_16eop_scalar_timesEEENS_11eglue_minusEEEE8is_aliasIdEEbRKNS_3MatIT_EE"
 "_ZNK4arma22partial_unwrap_defaultINS_5eGlueINS_2OpINS_11subview_rowIdEENS_9op_htransEEENS2_IS4_NS_10op_htrans2EEENS_11eglue_minusEEEE8is_aliasIdEEbRKNS_3MatIT_EE"
 "_ZNK4arma29partial_unwrap_htrans_defaultINS_5eGlueINS_11subview_colIdEENS_3eOpIS3_NS_16eop_scalar_timesEEENS_11eglue_minusEEEE8is_aliasIdEEbRKNS_3MatIT_EE"
 "_ZNK4arma29partial_unwrap_htrans_defaultINS_5eGlueINS_2OpINS_11subview_rowIdEENS_9op_htransEEENS2_IS4_NS_10op_htrans2EEENS_11eglue_minusEEEE8is_aliasIdEEbRKNS_3MatIT_EE"
 "_ZNK4arma3MatIdE4sizeEv"
 "_ZNK4arma4BaseIdNS_3MatIdEEE10is_diagmatEv"
 "_ZNK4arma4CubeIdE11get_mat_ptrEj"
 "_ZNK4arma4CubeIdE14create_mat_ptrEj"
 "_ZNK4arma5ProxyINS_11subview_colIdEEE10get_n_colsEv"
 "_ZNK4arma5ProxyINS_11subview_rowIdEEE10get_n_rowsEv"
 "_ZNK4arma5ProxyINS_2OpINS_11subview_rowIdEENS_9op_htransEEEE10get_n_colsEv"
 "_ZNK4arma5ProxyINS_2OpINS_11subview_rowIdEENS_9op_htransEEEE10is_alignedEv"
 "_ZNK4arma5ProxyINS_2OpINS_3MatIdEENS_6op_sumEEEE8is_aliasIdEEbRKNS2_IT_EE"
 "_ZNK4arma5ProxyINS_3ColIdEEE10get_n_colsEv"
 "_ZNK4arma7subviewIdE12row_iteratorneERKS2_"
 "_ZNK4arma7subviewIdE13check_overlapIdEEbRKNS0_IT_EE"
 "_ZNK4arma7subviewIdE6is_vecEv"
 "_ZNK4arma8arma_rng5randnIdEcvdEv"
 "_ZNK4Rcpp14not_compatible4whatEv"
 "_ZNK4Rcpp15PreserveStorageINS_12RObject_ImplIS0_EEEcvP7SEXPRECEv"
 "_ZNK4Rcpp15PreserveStorageINS_6VectorILi19ES0_EEE5get__Ev"
 "_ZNK4Rcpp15PreserveStorageINS_6VectorILi19ES0_EEEcvP7SEXPRECEv"
 "_ZNK4Rcpp19index_out_of_bounds4whatEv"
 "_ZNK4Rcpp6ShieldIP7SEXPRECEcvS2_Ev"
 "_ZNK4Rcpp6traits11proxy_cacheILi19ENS_15PreserveStorageEE3getEv"
 "_ZNK4Rcpp6VectorILi19ENS_15PreserveStorageEE4sizeEv"
 "_ZNK4Rcpp6VectorILi19ENS_15PreserveStorageEE6offsetERKNSt7__cxx1112basic_stringIcSt11char_traitsIcESaIcEEE"
 "_ZNK4Rcpp8internal13generic_proxyILi19ENS_15PreserveStorageEE3getEv"
 "_ZNK4Rcpp8internal13generic_proxyILi19ENS_15PreserveStorageEEcviEv"
 "_ZNK4Rcpp8internal13generic_proxyILi19ENS_15PreserveStorageEEcvT_IN4arma3ColIdEEEEv"
 "_ZNK4Rcpp8internal14Proxy_IteratorINS0_13generic_proxyILi19ENS_15PreserveStorageEEEEltERKS5_"
 "_ZNK4Rcpp8internal14Proxy_IteratorINS0_13generic_proxyILi19ENS_15PreserveStorageEEEEplEi"
 "_ZNK4Rcpp9DimensioncvP7SEXPRECEv"
 "_ZNK4Rcpp9exception4whatEv"
 "_ZNK9__gnu_cxx17__normal_iteratorIPKiSt6vectorIiSaIiEEE4baseEv"
 "_ZNK9__gnu_cxx17__normal_iteratorIPKiSt6vectorIiSaIiEEEixEx"
 "_ZNK9__gnu_cxx17__normal_iteratorIPN4arma23arma_find_unique_packetIdEESt6vectorIS3_SaIS3_EEE4baseEv"
 "_ZNK9__gnu_cxx17__normal_iteratorIPN4arma23arma_find_unique_packetIdEESt6vectorIS3_SaIS3_EEEdeEv"
 "_ZNK9__gnu_cxx17__normal_iteratorIPN4arma23arma_find_unique_packetIdEESt6vectorIS3_SaIS3_EEEmiEx"
 "_ZNK9__gnu_cxx17__normal_iteratorIPN4arma23arma_find_unique_packetIdEESt6vectorIS3_SaIS3_EEEplEx"
 "_ZNK9__gnu_cxx5__ops14_Iter_less_valclIPjjEEbT_RT0_"
 "_ZNK9__gnu_cxx5__ops14_Val_less_iterclIjPjEEbRT_T0_"
 "_ZNK9__gnu_cxx5__ops15_Iter_less_iterclIPjS3_EEbT_T0_"
 "_ZNKSt15__new_allocatorIiE11_M_max_sizeEv"
 "_ZNKSt15__new_allocatorIiE8max_sizeEv"
 "_ZNKSt15__new_allocatorIN4arma23arma_find_unique_packetIdEEE11_M_max_sizeEv"
 "_ZNKSt15__new_allocatorIN4arma23arma_find_unique_packetIdEEE8max_sizeEv"
 "_ZNKSt17integral_constantIbLb1EEcvbEv"
 "_ZNKSt18gamma_distributionIdE10param_type4betaEv"
 "_ZNKSt18gamma_distributionIdE10param_type5alphaEv"
 "_ZNKSt19normal_distributionIdE10param_type4meanEv"
 "_ZNKSt19normal_distributionIdE10param_type6stddevEv"
 "_ZNKSt6vectorIiSaIiEE3endEv"
 "_ZNKSt6vectorIiSaIiEE5beginEv"
 "_ZNKSt8ios_base5flagsEv"
 "_ZNKSt8ios_base5widthEv"
 "_ZNKSt8ios_base9precisionEv"
 "_ZNSaIiEC1ERKS_"
 "_ZNSaIiEC1Ev"
 "_ZNSaIiEC2ERKS_"
 "_ZNSaIiED1Ev"
 "_ZNSaIiED2Ev"
 "_ZNSaIN4arma23arma_find_unique_packetIdEEEC1ERKS2_"
 "_ZNSaIN4arma23arma_find_unique_packetIdEEEC1Ev"
 "_ZNSaIN4arma23arma_find_unique_packetIdEEEC2ERKS2_"
 "_ZNSaIN4arma23arma_find_unique_packetIdEEED1Ev"
 "_ZNSaIN4arma23arma_find_unique_packetIdEEED2Ev"
 "_ZNSaINSt7__cxx1112basic_stringIcSt11char_traitsIcESaIcEEEEC2Ev"
 "_ZNSaINSt7__cxx1112basic_stringIcSt11char_traitsIcESaIcEEEED2Ev"
 "_ZNSt11char_traitsIcE12to_char_typeERKi"
 "_ZNSt11char_traitsIcE3eofEv"
 "_ZNSt12__mutex_baseC2Ev"
 "_ZNSt12__mutex_baseD2Ev"
 "_ZNSt12_Destroy_auxILb0EE9__destroyIPNSt7__cxx1112basic_stringIcSt11char_traitsIcESaIcEEEEEvT_S9_"
 "_ZNSt12_Destroy_auxILb1EE9__destroyIPiEEvT_S3_"
 "_ZNSt12_Destroy_auxILb1EE9__destroyIPN4arma23arma_find_unique_packetIdEEEEvT_S6_"
 "_ZNSt12_Vector_baseIiSaIiEE11_M_allocateEy"
 "_ZNSt12_Vector_baseIiSaIiEE12_Vector_implC1ERKS0_"
 "_ZNSt12_Vector_baseIiSaIiEE12_Vector_implD1Ev"
 "_ZNSt12_Vector_baseIiSaIiEE13_M_deallocateEPiy"
 "_ZNSt12_Vector_baseIiSaIiEE17_M_create_storageEy"
 "_ZNSt12_Vector_baseIiSaIiEE17_Vector_impl_dataC2Ev"
 "_ZNSt12_Vector_baseIiSaIiEE19_M_get_Tp_allocatorEv"
 "_ZNSt12_Vector_baseIiSaIiEEC2EyRKS0_"
 "_ZNSt12_Vector_baseIiSaIiEED2Ev"
 "_ZNSt12_Vector_baseIN4arma23arma_find_unique_packetIdEESaIS2_EE11_M_allocateEy"
 "_ZNSt12_Vector_baseIN4arma23arma_find_unique_packetIdEESaIS2_EE12_Vector_implC1ERKS3_"
 "_ZNSt12_Vector_baseIN4arma23arma_find_unique_packetIdEESaIS2_EE12_Vector_implD1Ev"
 "_ZNSt12_Vector_baseIN4arma23arma_find_unique_packetIdEESaIS2_EE13_M_deallocateEPS2_y"
 "_ZNSt12_Vector_baseIN4arma23arma_find_unique_packetIdEESaIS2_EE17_M_create_storageEy"
 "_ZNSt12_Vector_baseIN4arma23arma_find_unique_packetIdEESaIS2_EE17_Vector_impl_dataC2Ev"
 "_ZNSt12_Vector_baseIN4arma23arma_find_unique_packetIdEESaIS2_EE19_M_get_Tp_allocatorEv"
 "_ZNSt12_Vector_baseIN4arma23arma_find_unique_packetIdEESaIS2_EEC2EyRKS3_"
 "_ZNSt12_Vector_baseIN4arma23arma_find_unique_packetIdEESaIS2_EED2Ev"
 "_ZNSt12_Vector_baseINSt7__cxx1112basic_stringIcSt11char_traitsIcESaIcEEESaIS5_EE12_Vector_implC1Ev"
 "_ZNSt12_Vector_baseINSt7__cxx1112basic_stringIcSt11char_traitsIcESaIcEEESaIS5_EE12_Vector_implD1Ev"
 "_ZNSt12_Vector_baseINSt7__cxx1112basic_stringIcSt11char_traitsIcESaIcEEESaIS5_EE13_M_deallocateEPS5_y"
 "_ZNSt12_Vector_baseINSt7__cxx1112basic_stringIcSt11char_traitsIcESaIcEEESaIS5_EE17_Vector_impl_dataC2Ev"
 "_ZNSt12_Vector_baseINSt7__cxx1112basic_stringIcSt11char_traitsIcESaIcEEESaIS5_EE19_M_get_Tp_allocatorEv"
 "_ZNSt12_Vector_baseINSt7__cxx1112basic_stringIcSt11char_traitsIcESaIcEEESaIS5_EEC2Ev"
 "_ZNSt12_Vector_baseINSt7__cxx1112basic_stringIcSt11char_traitsIcESaIcEEESaIS5_EED2Ev"
 "_ZNSt14numeric_limitsIdE9quiet_NaNEv"
 "_ZNSt14numeric_limitsIyE3maxEv"
 "_ZNSt15__new_allocatorIiE10deallocateEPiy"
 "_ZNSt15__new_allocatorIiE8allocateEyPKv"
 "_ZNSt15__new_allocatorIiEC2ERKS0_"
 "_ZNSt15__new_allocatorIiEC2Ev"
 "_ZNSt15__new_allocatorIiED2Ev"
 "_ZNSt15__new_allocatorIN4arma23arma_find_unique_packetIdEEE10deallocateEPS2_y"
 "_ZNSt15__new_allocatorIN4arma23arma_find_unique_packetIdEEE8allocateEyPKv"
 "_ZNSt15__new_allocatorIN4arma23arma_find_unique_packetIdEEEC2ERKS3_"
 "_ZNSt15__new_allocatorIN4arma23arma_find_unique_packetIdEEEC2Ev"
 "_ZNSt15__new_allocatorIN4arma23arma_find_unique_packetIdEEED2Ev"
 "_ZNSt15__new_allocatorINSt7__cxx1112basic_stringIcSt11char_traitsIcESaIcEEEE10deallocateEPS5_y"
 "_ZNSt15__new_allocatorINSt7__cxx1112basic_stringIcSt11char_traitsIcESaIcEEEEC2Ev"
 "_ZNSt15__new_allocatorINSt7__cxx1112basic_stringIcSt11char_traitsIcESaIcEEEED2Ev"
 "_ZNSt16allocator_traitsISaIiEE10deallocateERS0_Piy"
 "_ZNSt16allocator_traitsISaIiEE8allocateERS0_y"
 "_ZNSt16allocator_traitsISaIiEE8max_sizeERKS0_"
 "_ZNSt16allocator_traitsISaIN4arma23arma_find_unique_packetIdEEEE10deallocateERS3_PS2_y"
 "_ZNSt16allocator_traitsISaIN4arma23arma_find_unique_packetIdEEEE8allocateERS3_y"
 "_ZNSt16allocator_traitsISaIN4arma23arma_find_unique_packetIdEEEE8max_sizeERKS3_"
 "_ZNSt16allocator_traitsISaINSt7__cxx1112basic_stringIcSt11char_traitsIcESaIcEEEEE10deallocateERS6_PS5_y"
 "_ZNSt18gamma_distributionIdE10param_type13_M_initializeEv"
 "_ZNSt18gamma_distributionIdE10param_typeC1Edd"
 "_ZNSt18gamma_distributionIdEC1Edd"
 "_ZNSt18gamma_distributionIdEclISt23mersenne_twister_engineIyLy64ELy312ELy156ELy31ELy13043109905998158313ELy29ELy6148914691236517205ELy17ELy8202884508482404352ELy37ELy18444473444759240704ELy43ELy6364136223846793005EEEEdRT_"
 "_ZNSt18gamma_distributionIdEclISt23mersenne_twister_engineIyLy64ELy312ELy156ELy31ELy13043109905998158313ELy29ELy6148914691236517205ELy17ELy8202884508482404352ELy37ELy18444473444759240704ELy43ELy6364136223846793005EEEEdRT_RKNS0_10param_typeE"
 "_ZNSt19normal_distributionIdE10param_typeC1Edd"
 "_ZNSt19normal_distributionIdEC1Edd"
 "_ZNSt19normal_distributionIdEC1Ev"
 "_ZNSt19normal_distributionIdEclISt23mersenne_twister_engineIyLy64ELy312ELy156ELy31ELy13043109905998158313ELy29ELy6148914691236517205ELy17ELy8202884508482404352ELy37ELy18444473444759240704ELy43ELy6364136223846793005EEEEdRT_"
 "_ZNSt19normal_distributionIdEclISt23mersenne_twister_engineIyLy64ELy312ELy156ELy31ELy13043109905998158313ELy29ELy6148914691236517205ELy17ELy8202884508482404352ELy37ELy18444473444759240704ELy43ELy6364136223846793005EEEEdRT_RKNS0_10param_typeE"
 "_ZNSt20__copy_move_backwardILb1ELb1ESt26random_access_iterator_tagE13__copy_move_bIjEEPT_PKS3_S6_S4_"
 "_ZNSt20__copy_move_backwardILb1ELb1ESt26random_access_iterator_tagE13__copy_move_bIN4arma23arma_find_unique_packetIdEEEEPT_PKS6_S9_S7_"
 "_ZNSt23mersenne_twister_engineIyLy64ELy312ELy156ELy31ELy13043109905998158313ELy29ELy6148914691236517205ELy17ELy8202884508482404352ELy37ELy18444473444759240704ELy43ELy6364136223846793005EE11_M_gen_randEv"
 "_ZNSt23mersenne_twister_engineIyLy64ELy312ELy156ELy31ELy13043109905998158313ELy29ELy6148914691236517205ELy17ELy8202884508482404352ELy37ELy18444473444759240704ELy43ELy6364136223846793005EE3minEv"
 "_ZNSt23mersenne_twister_engineIyLy64ELy312ELy156ELy31ELy13043109905998158313ELy29ELy6148914691236517205ELy17ELy8202884508482404352ELy37ELy18444473444759240704ELy43ELy6364136223846793005EE4seedEy"
 "_ZNSt23mersenne_twister_engineIyLy64ELy312ELy156ELy31ELy13043109905998158313ELy29ELy6148914691236517205ELy17ELy8202884508482404352ELy37ELy18444473444759240704ELy43ELy6364136223846793005EEC1Ev"
 "_ZNSt23mersenne_twister_engineIyLy64ELy312ELy156ELy31ELy13043109905998158313ELy29ELy6148914691236517205ELy17ELy8202884508482404352ELy37ELy18444473444759240704ELy43ELy6364136223846793005EEC1Ey"
 "_ZNSt23mersenne_twister_engineIyLy64ELy312ELy156ELy31ELy13043109905998158313ELy29ELy6148914691236517205ELy17ELy8202884508482404352ELy37ELy18444473444759240704ELy43ELy6364136223846793005EEclEv"
 "_ZNSt27__uninitialized_default_n_1ILb1EE18__uninit_default_nIPiyEET_S3_T0_"
 "_ZNSt27__uninitialized_default_n_1ILb1EE18__uninit_default_nIPN4arma23arma_find_unique_packetIdEEyEET_S6_T0_"
 "_ZNSt5mutexC1Ev"
 "_ZNSt5mutexD1Ev"
 "_ZNSt6vectorIiSaIiEE11_S_max_sizeERKS0_"
 "_ZNSt6vectorIiSaIiEE17_S_check_init_lenEyRKS0_"
 "_ZNSt6vectorIiSaIiEE21_M_default_initializeEy"
 "_ZNSt6vectorIiSaIiEEC1EyRKS0_"
 "_ZNSt6vectorIiSaIiEED1Ev"
 "_ZNSt6vectorIiSaIiEEixEy"
 "_ZNSt6vectorIN4arma23arma_find_unique_packetIdEESaIS2_EE11_S_max_sizeERKS3_"
 "_ZNSt6vectorIN4arma23arma_find_unique_packetIdEESaIS2_EE17_S_check_init_lenEyRKS3_"
 "_ZNSt6vectorIN4arma23arma_find_unique_packetIdEESaIS2_EE21_M_default_initializeEy"
 "_ZNSt6vectorIN4arma23arma_find_unique_packetIdEESaIS2_EE3endEv"
 "_ZNSt6vectorIN4arma23arma_find_unique_packetIdEESaIS2_EE5beginEv"
 "_ZNSt6vectorIN4arma23arma_find_unique_packetIdEESaIS2_EEC1EyRKS3_"
 "_ZNSt6vectorIN4arma23arma_find_unique_packetIdEESaIS2_EED1Ev"
 "_ZNSt6vectorIN4arma23arma_find_unique_packetIdEESaIS2_EEixEy"
 "_ZNSt6vectorINSt7__cxx1112basic_stringIcSt11char_traitsIcESaIcEEESaIS5_EEC1Ev"
 "_ZNSt6vectorINSt7__cxx1112basic_stringIcSt11char_traitsIcESaIcEEESaIS5_EED1Ev"
 "_ZNSt8__detail4_ModIyLy0ELy1ELy0ELb1ELb0EE6__calcEy"
 "_ZNSt8__detail4_ModIyLy312ELy1ELy0ELb1ELb1EE6__calcEy"
 "_ZNSt8__detail5__modIyLy0ELy1ELy0EEET_S1_"
 "_ZNSt8__detail5__modIyLy312ELy1ELy0EEET_S1_"
 "_ZNSt8__detail8_AdaptorISt23mersenne_twister_engineIyLy64ELy312ELy156ELy31ELy13043109905998158313ELy29ELy6148914691236517205ELy17ELy8202884508482404352ELy37ELy18444473444759240704ELy43ELy6364136223846793005EEdEC1ERS2_"
 "_ZNSt8__detail8_AdaptorISt23mersenne_twister_engineIyLy64ELy312ELy156ELy31ELy13043109905998158313ELy29ELy6148914691236517205ELy17ELy8202884508482404352ELy37ELy18444473444759240704ELy43ELy6364136223846793005EEdEclEv"
 "_ZNSt8ios_base4setfESt13_Ios_Fmtflags"
 "_ZNSt8ios_base4setfESt13_Ios_FmtflagsS0_"
 "_ZNSt8ios_base5flagsESt13_Ios_Fmtflags"
 "_ZNSt8ios_base5widthEx"
 "_ZNSt8ios_base6unsetfESt13_Ios_Fmtflags"
 "_ZNSt8ios_base9precisionEx"
 "_ZNSt9bad_allocC1Ev"
 "_ZNSt9exceptionC2Ev"
 "_ZnwyPv"
 "_ZSt10__count_ifIN4arma7subviewIdE12row_iteratorEN9__gnu_cxx5__ops16_Iter_equals_valIKiEEENSt15iterator_traitsIT_E15difference_typeESA_SA_T0_"
 "_ZSt10__count_ifIN4arma7subviewIdE12row_iteratorEN9__gnu_cxx5__ops16_Iter_equals_valIKjEEENSt15iterator_traitsIT_E15difference_typeESA_SA_T0_"
 "_ZSt10__count_ifIPdN9__gnu_cxx5__ops16_Iter_equals_valIKdEEENSt15iterator_traitsIT_E15difference_typeES7_S7_T0_"
 "_ZSt10__count_ifIPdN9__gnu_cxx5__ops16_Iter_equals_valIKiEEENSt15iterator_traitsIT_E15difference_typeES7_S7_T0_"
 "_ZSt10__count_ifIPdN9__gnu_cxx5__ops16_Iter_equals_valIKjEEENSt15iterator_traitsIT_E15difference_typeES7_S7_T0_"
 "_ZSt10__distanceIN9__gnu_cxx17__normal_iteratorIPKiSt6vectorIiSaIiEEEEENSt15iterator_traitsIT_E15difference_typeES9_S9_St26random_access_iterator_tag"
 "_ZSt10__distanceIPKdENSt15iterator_traitsIT_E15difference_typeES3_S3_St26random_access_iterator_tag"
 "_ZSt10__fill_n_aIPiyiET_S1_T0_RKT1_St26random_access_iterator_tag"
 "_ZSt10__fill_n_aIPN4arma23arma_find_unique_packetIdEEyS2_ET_S4_T0_RKT1_St26random_access_iterator_tag"
 "_ZSt10__pop_heapIN9__gnu_cxx17__normal_iteratorIPN4arma23arma_find_unique_packetIdEESt6vectorIS4_SaIS4_EEEENS0_5__ops15_Iter_comp_iterINS2_27arma_find_unique_comparatorIdEEEEEvT_SF_SF_RT0_"
 "_ZSt10__pop_heapIPjN9__gnu_cxx5__ops15_Iter_less_iterEEvT_S4_S4_RT0_"
 "_ZSt10_ConstructIiJEEvPT_DpOT0_"
 "_ZSt10_ConstructIN4arma23arma_find_unique_packetIdEEJEEvPT_DpOT0_"
 "_ZSt11__addressofIiEPT_RS0_"
 "_ZSt11__addressofIN4arma23arma_find_unique_packetIdEEEPT_RS3_"
 "_ZSt11__addressofINSt7__cxx1112basic_stringIcSt11char_traitsIcESaIcEEEEPT_RS6_"
 "_ZSt11__make_heapIN9__gnu_cxx17__normal_iteratorIPN4arma23arma_find_unique_packetIdEESt6vectorIS4_SaIS4_EEEENS0_5__ops15_Iter_comp_iterINS2_27arma_find_unique_comparatorIdEEEEEvT_SF_RT0_"
 "_ZSt11__make_heapIPjN9__gnu_cxx5__ops15_Iter_less_iterEEvT_S4_RT0_"
 "_ZSt11__push_heapIN9__gnu_cxx17__normal_iteratorIPN4arma23arma_find_unique_packetIdEESt6vectorIS4_SaIS4_EEEExS4_NS0_5__ops14_Iter_comp_valINS2_27arma_find_unique_comparatorIdEEEEEvT_T0_SG_T1_RT2_"
 "_ZSt11__push_heapIPjxjN9__gnu_cxx5__ops14_Iter_less_valEEvT_T0_S5_T1_RT2_"
 "_ZSt11__sort_heapIN9__gnu_cxx17__normal_iteratorIPN4arma23arma_find_unique_packetIdEESt6vectorIS4_SaIS4_EEEENS0_5__ops15_Iter_comp_iterINS2_27arma_find_unique_comparatorIdEEEEEvT_SF_RT0_"
 "_ZSt11__sort_heapIPjN9__gnu_cxx5__ops15_Iter_less_iterEEvT_S4_RT0_"
 "_ZSt12__miter_baseIN9__gnu_cxx17__normal_iteratorIPN4arma23arma_find_unique_packetIdEESt6vectorIS4_SaIS4_EEEEET_SA_"
 "_ZSt12__miter_baseIPjET_S1_"
 "_ZSt12__niter_baseIPjET_S1_"
 "_ZSt12__niter_baseIPN4arma23arma_find_unique_packetIdEESt6vectorIS2_SaIS2_EEET_N9__gnu_cxx17__normal_iteratorIS7_T0_EE"
 "_ZSt12__niter_wrapIN9__gnu_cxx17__normal_iteratorIPN4arma23arma_find_unique_packetIdEESt6vectorIS4_SaIS4_EEEES5_ET_SA_T0_"
 "_ZSt12__niter_wrapIPjET_RKS1_S1_"
 "_ZSt13__adjust_heapIN9__gnu_cxx17__normal_iteratorIPN4arma23arma_find_unique_packetIdEESt6vectorIS4_SaIS4_EEEExS4_NS0_5__ops15_Iter_comp_iterINS2_27arma_find_unique_comparatorIdEEEEEvT_T0_SG_T1_T2_"
 "_ZSt13__adjust_heapIPjxjN9__gnu_cxx5__ops15_Iter_less_iterEEvT_T0_S5_T1_T2_"
 "_ZSt13__heap_selectIN9__gnu_cxx17__normal_iteratorIPN4arma23arma_find_unique_packetIdEESt6vectorIS4_SaIS4_EEEENS0_5__ops15_Iter_comp_iterINS2_27arma_find_unique_comparatorIdEEEEEvT_SF_SF_T0_"
 "_ZSt13__heap_selectIPjN9__gnu_cxx5__ops15_Iter_less_iterEEvT_S4_S4_T0_"
 "_ZSt13move_backwardIN9__gnu_cxx17__normal_iteratorIPN4arma23arma_find_unique_packetIdEESt6vectorIS4_SaIS4_EEEES9_ET0_T_SB_SA_"
 "_ZSt13move_backwardIPjS0_ET0_T_S2_S1_"
 "_ZSt14__partial_sortIN9__gnu_cxx17__normal_iteratorIPN4arma23arma_find_unique_packetIdEESt6vectorIS4_SaIS4_EEEENS0_5__ops15_Iter_comp_iterINS2_27arma_find_unique_comparatorIdEEEEEvT_SF_SF_T0_"
 "_ZSt14__partial_sortIPjN9__gnu_cxx5__ops15_Iter_less_iterEEvT_S4_S4_T0_"
 "_ZSt16__insertion_sortIN9__gnu_cxx17__normal_iteratorIPN4arma23arma_find_unique_packetIdEESt6vectorIS4_SaIS4_EEEENS0_5__ops15_Iter_comp_iterINS2_27arma_find_unique_comparatorIdEEEEEvT_SF_T0_"
 "_ZSt16__insertion_sortIPjN9__gnu_cxx5__ops15_Iter_less_iterEEvT_S4_T0_"
 "_ZSt16__introsort_loopIN9__gnu_cxx17__normal_iteratorIPN4arma23arma_find_unique_packetIdEESt6vectorIS4_SaIS4_EEEExNS0_5__ops15_Iter_comp_iterINS2_27arma_find_unique_comparatorIdEEEEEvT_SF_T0_T1_"
 "_ZSt16__introsort_loopIPjxN9__gnu_cxx5__ops15_Iter_less_iterEEvT_S4_T0_T1_"
 "_ZSt17__size_to_integery"
 "_ZSt18generate_canonicalIdLy53ESt23mersenne_twister_engineIyLy64ELy312ELy156ELy31ELy13043109905998158313ELy29ELy6148914691236517205ELy17ELy8202884508482404352ELy37ELy18444473444759240704ELy43ELy6364136223846793005EEET_RT1_"
 "_ZSt19__iterator_categoryIN9__gnu_cxx17__normal_iteratorIPKiSt6vectorIiSaIiEEEEENSt15iterator_traitsIT_E17iterator_categoryERKS9_"
 "_ZSt19__iterator_categoryIPiENSt15iterator_traitsIT_E17iterator_categoryERKS2_"
 "_ZSt19__iterator_categoryIPKdENSt15iterator_traitsIT_E17iterator_categoryERKS3_"
 "_ZSt19__iterator_categoryIPN4arma23arma_find_unique_packetIdEEENSt15iterator_traitsIT_E17iterator_categoryERKS5_"
 "_ZSt21__unguarded_partitionIN9__gnu_cxx17__normal_iteratorIPN4arma23arma_find_unique_packetIdEESt6vectorIS4_SaIS4_EEEENS0_5__ops15_Iter_comp_iterINS2_27arma_find_unique_comparatorIdEEEEET_SF_SF_SF_T0_"
 "_ZSt21__unguarded_partitionIPjN9__gnu_cxx5__ops15_Iter_less_iterEET_S4_S4_S4_T0_"
 "_ZSt22__copy_move_backward_aILb1EN9__gnu_cxx17__normal_iteratorIPN4arma23arma_find_unique_packetIdEESt6vectorIS4_SaIS4_EEEES9_ET1_T0_SB_SA_"
 "_ZSt22__copy_move_backward_aILb1EPjS0_ET1_T0_S2_S1_"
 "_ZSt22__final_insertion_sortIN9__gnu_cxx17__normal_iteratorIPN4arma23arma_find_unique_packetIdEESt6vectorIS4_SaIS4_EEEENS0_5__ops15_Iter_comp_iterINS2_27arma_find_unique_comparatorIdEEEEEvT_SF_T0_"
 "_ZSt22__final_insertion_sortIPjN9__gnu_cxx5__ops15_Iter_less_iterEEvT_S4_T0_"
 "_ZSt22__move_median_to_firstIN9__gnu_cxx17__normal_iteratorIPN4arma23arma_find_unique_packetIdEESt6vectorIS4_SaIS4_EEEENS0_5__ops15_Iter_comp_iterINS2_27arma_find_unique_comparatorIdEEEEEvT_SF_SF_SF_T0_"
 "_ZSt22__move_median_to_firstIPjN9__gnu_cxx5__ops15_Iter_less_iterEEvT_S4_S4_S4_T0_"
 "_ZSt23__copy_move_backward_a1ILb1EPjS0_ET1_T0_S2_S1_"
 "_ZSt23__copy_move_backward_a1ILb1EPN4arma23arma_find_unique_packetIdEES3_ET1_T0_S5_S4_"
 "_ZSt23__copy_move_backward_a2ILb1EPjS0_ET1_T0_S2_S1_"
 "_ZSt23__copy_move_backward_a2ILb1EPN4arma23arma_find_unique_packetIdEES3_ET1_T0_S5_S4_"
 "_ZSt23__is_constant_evaluatedv"
 "_ZSt25__unguarded_linear_insertIN9__gnu_cxx17__normal_iteratorIPN4arma23arma_find_unique_packetIdEESt6vectorIS4_SaIS4_EEEENS0_5__ops14_Val_comp_iterINS2_27arma_find_unique_comparatorIdEEEEEvT_T0_"
 "_ZSt25__unguarded_linear_insertIPjN9__gnu_cxx5__ops14_Val_less_iterEEvT_T0_"
 "_ZSt25__uninitialized_default_nIPiyET_S1_T0_"
 "_ZSt25__uninitialized_default_nIPN4arma23arma_find_unique_packetIdEEyET_S4_T0_"
 "_ZSt26__unguarded_insertion_sortIN9__gnu_cxx17__normal_iteratorIPN4arma23arma_find_unique_packetIdEESt6vectorIS4_SaIS4_EEEENS0_5__ops15_Iter_comp_iterINS2_27arma_find_unique_comparatorIdEEEEEvT_SF_T0_"
 "_ZSt26__unguarded_insertion_sortIPjN9__gnu_cxx5__ops15_Iter_less_iterEEvT_S4_T0_"
 "_ZSt27__unguarded_partition_pivotIN9__gnu_cxx17__normal_iteratorIPN4arma23arma_find_unique_packetIdEESt6vectorIS4_SaIS4_EEEENS0_5__ops15_Iter_comp_iterINS2_27arma_find_unique_comparatorIdEEEEET_SF_SF_T0_"
 "_ZSt27__unguarded_partition_pivotIPjN9__gnu_cxx5__ops15_Iter_less_iterEET_S4_S4_T0_"
 "_ZSt27__uninitialized_default_n_aIPiyiET_S1_T0_RSaIT1_E"
 "_ZSt27__uninitialized_default_n_aIPN4arma23arma_find_unique_packetIdEEyS2_ET_S4_T0_RSaIT1_E"
 "_ZSt3absd"
 "_ZSt3maxIdERKT_S2_S2_"
 "_ZSt3maxIiERKT_S2_S2_"
 "_ZSt3maxIyERKT_S2_S2_"
 "_ZSt3minIiERKT_S2_S2_"
 "_ZSt3minIjERKT_S2_S2_"
 "_ZSt3minIyERKT_S2_S2_"
 "_ZSt3powIdiEN9__gnu_cxx11__promote_2IT_T0_NS0_9__promoteIS2_XsrSt12__is_integerIS2_E7__valueEE6__typeENS4_IS3_XsrS5_IS3_E7__valueEE6__typeEE6__typeES2_S3_"
 "_ZSt3powIfiEN9__gnu_cxx11__promote_2IT_T0_NS0_9__promoteIS2_XsrSt12__is_integerIS2_E7__valueEE6__typeENS4_IS3_XsrS5_IS3_E7__valueEE6__typeEE6__typeES2_S3_"
 "_ZSt3powIidEN9__gnu_cxx11__promote_2IT_T0_NS0_9__promoteIS2_XsrSt12__is_integerIS2_E7__valueEE6__typeENS4_IS3_XsrS5_IS3_E7__valueEE6__typeEE6__typeES2_S3_"
 "_ZSt3powIijEN9__gnu_cxx11__promote_2IT_T0_NS0_9__promoteIS2_XsrSt12__is_integerIS2_E7__valueEE6__typeENS4_IS3_XsrS5_IS3_E7__valueEE6__typeEE6__typeES2_S3_"
 "_ZSt4__lgx"
 "_ZSt4moveIRdEONSt16remove_referenceIT_E4typeEOS2_"
 "_ZSt4moveIRjEONSt16remove_referenceIT_E4typeEOS2_"
 "_ZSt4moveIRN4arma23arma_find_unique_packetIdEEEONSt16remove_referenceIT_E4typeEOS5_"
 "_ZSt4moveIRN4arma27arma_find_unique_comparatorIdEEEONSt16remove_referenceIT_E4typeEOS5_"
 "_ZSt4moveIRN9__gnu_cxx5__ops15_Iter_comp_iterIN4arma27arma_find_unique_comparatorIdEEEEEONSt16remove_referenceIT_E4typeEOS9_"
 "_ZSt4moveIRN9__gnu_cxx5__ops15_Iter_less_iterEEONSt16remove_referenceIT_E4typeEOS5_"
 "_ZSt4moveIRNSt7__cxx1112basic_stringIcSt11char_traitsIcESaIcEEEEONSt16remove_referenceIT_E4typeEOS8_"
 "_ZSt4sortIN9__gnu_cxx17__normal_iteratorIPN4arma23arma_find_unique_packetIdEESt6vectorIS4_SaIS4_EEEENS2_27arma_find_unique_comparatorIdEEEvT_SC_T0_"
 "_ZSt4sortIPjEvT_S1_"
 "_ZSt4swapIdENSt9enable_ifIXsrSt6__and_IJSt6__not_ISt15__is_tuple_likeIT_EESt21is_move_constructibleIS4_ESt18is_move_assignableIS4_EEE5valueEvE4typeERS4_SE_"
 "_ZSt4swapIjENSt9enable_ifIXsrSt6__and_IJSt6__not_ISt15__is_tuple_likeIT_EESt21is_move_constructibleIS4_ESt18is_move_assignableIS4_EEE5valueEvE4typeERS4_SE_"
 "_ZSt4swapIN4arma23arma_find_unique_packetIdEEENSt9enable_ifIXsrSt6__and_IJSt6__not_ISt15__is_tuple_likeIT_EESt21is_move_constructibleIS7_ESt18is_move_assignableIS7_EEE5valueEvE4typeERS7_SH_"
 "_ZSt5countIN4arma7subviewIdE12row_iteratorEiENSt15iterator_traitsIT_E15difference_typeES5_S5_RKT0_"
 "_ZSt5countIN4arma7subviewIdE12row_iteratorEjENSt15iterator_traitsIT_E15difference_typeES5_S5_RKT0_"
 "_ZSt5countIPddENSt15iterator_traitsIT_E15difference_typeES2_S2_RKT0_"
 "_ZSt5countIPdiENSt15iterator_traitsIT_E15difference_typeES2_S2_RKT0_"
 "_ZSt5countIPdjENSt15iterator_traitsIT_E15difference_typeES2_S2_RKT0_"
 "_ZSt5isnand"
 "_ZSt6__sortIN9__gnu_cxx17__normal_iteratorIPN4arma23arma_find_unique_packetIdEESt6vectorIS4_SaIS4_EEEENS0_5__ops15_Iter_comp_iterINS2_27arma_find_unique_comparatorIdEEEEEvT_SF_T0_"
 "_ZSt6__sortIPjN9__gnu_cxx5__ops15_Iter_less_iterEEvT_S4_T0_"
 "_ZSt6fill_nIPiyiET_S1_T0_RKT1_"
 "_ZSt6fill_nIPN4arma23arma_find_unique_packetIdEEyS2_ET_S4_T0_RKT1_"
 "_ZSt6lgammaf"
 "_ZSt7forwardIiEOT_RNSt16remove_referenceIS0_E4typeE"
 "_ZSt7forwardIRKNSt7__cxx1112basic_stringIcSt11char_traitsIcESaIcEEEEOT_RNSt16remove_referenceIS8_E4typeE"
 "_ZSt8__fill_aIPiiEvT_S1_RKT0_"
 "_ZSt8__fill_aIPN4arma23arma_find_unique_packetIdEES2_EvT_S4_RKT0_"
 "_ZSt8_DestroyINSt7__cxx1112basic_stringIcSt11char_traitsIcESaIcEEEEvPT_"
 "_ZSt8_DestroyIPiEvT_S1_"
 "_ZSt8_DestroyIPiiEvT_S1_RSaIT0_E"
 "_ZSt8_DestroyIPN4arma23arma_find_unique_packetIdEEEvT_S4_"
 "_ZSt8_DestroyIPN4arma23arma_find_unique_packetIdEES2_EvT_S4_RSaIT0_E"
 "_ZSt8_DestroyIPNSt7__cxx1112basic_stringIcSt11char_traitsIcESaIcEEEEvT_S7_"
 "_ZSt8_DestroyIPNSt7__cxx1112basic_stringIcSt11char_traitsIcESaIcEEES5_EvT_S7_RSaIT0_E"
 "_ZSt8distanceIN9__gnu_cxx17__normal_iteratorIPKiSt6vectorIiSaIiEEEEENSt15iterator_traitsIT_E15difference_typeES9_S9_"
 "_ZSt8distanceIPKdENSt15iterator_traitsIT_E15difference_typeES3_S3_"
 "_ZSt9__fill_a1IPiiEN9__gnu_cxx11__enable_ifIXsrSt11__is_scalarIT0_E7__valueEvE6__typeET_S8_RKS4_"
 "_ZSt9__fill_a1IPN4arma23arma_find_unique_packetIdEES2_EN9__gnu_cxx11__enable_ifIXntsrSt11__is_scalarIT0_E7__valueEvE6__typeET_SB_RKS7_"
 "_ZSt9iter_swapIN9__gnu_cxx17__normal_iteratorIPN4arma23arma_find_unique_packetIdEESt6vectorIS4_SaIS4_EEEES9_EvT_T0_"
 "_ZSt9iter_swapIPjS0_EvT_T0_"
 "_ZStaNRSt13_Ios_FmtflagsS_"
 "_ZStanSt13_Ios_FmtflagsS_"
 "_ZStcoSt13_Ios_Fmtflags"
 "_ZSteqRKSaIcES1_"
 "_ZStoRRSt13_Ios_FmtflagsS_"
 "_ZStorSt13_Ios_FmtflagsS_"
 "_ZStplIcSt11char_traitsIcESaIcEENSt7__cxx1112basic_stringIT_T0_T1_EEOS8_S9_"
 "_ZTCN4Rcpp8RostreamILb0EEE0_So"
 "_ZTCN4Rcpp8RostreamILb1EEE0_So"
 "_ZTIN4Rcpp10RstreambufILb0EEE"
 "_ZTIN4Rcpp10RstreambufILb1EEE"
 "_ZTIN4Rcpp14not_compatibleE"
 "_ZTIN4Rcpp19index_out_of_boundsE"
 "_ZTIN4Rcpp8internal20InterruptedExceptionE"
 "_ZTIN4Rcpp8RostreamILb0EEE"
 "_ZTIN4Rcpp8RostreamILb1EEE"
 "_ZTIN4Rcpp9exceptionE"
 "_ZTISt11logic_error"
 "_ZTISt12out_of_range"
 "_ZTISt13runtime_error"
 "_ZTISt9bad_alloc"
 "_ZTISt9exception"
 "_ZTSN4Rcpp10RstreambufILb0EEE"
 "_ZTSN4Rcpp10RstreambufILb1EEE"
 "_ZTSN4Rcpp14not_compatibleE"
 "_ZTSN4Rcpp19index_out_of_boundsE"
 "_ZTSN4Rcpp8internal20InterruptedExceptionE"
 "_ZTSN4Rcpp8RostreamILb0EEE"
 "_ZTSN4Rcpp8RostreamILb1EEE"
 "_ZTSN4Rcpp9exceptionE"
 "_ZTSSt11logic_error"
 "_ZTSSt12out_of_range"
 "_ZTSSt13runtime_error"
 "_ZTSSt9bad_alloc"
 "_ZTSSt9exception"
 "_ZTTN4Rcpp8RostreamILb0EEE"
 "_ZTTN4Rcpp8RostreamILb1EEE"
 "_ZTv0_n24_N4Rcpp8RostreamILb0EED0Ev"
 "_ZTv0_n24_N4Rcpp8RostreamILb0EED1Ev"
 "_ZTv0_n24_N4Rcpp8RostreamILb1EED0Ev"
 "_ZTv0_n24_N4Rcpp8RostreamILb1EED1Ev"
 "_ZTVN4Rcpp10RstreambufILb0EEE"
 "_ZTVN4Rcpp10RstreambufILb1EEE"
 "_ZTVN4Rcpp14not_compatibleE"
 "_ZTVN4Rcpp19index_out_of_boundsE"
 "_ZTVN4Rcpp8RostreamILb0EEE"
 "_ZTVN4Rcpp8RostreamILb1EEE"
 "_ZTVN4Rcpp9exceptionE"
 "_ZZ7dataptrP7SEXPRECE3fun"
 "_ZZN4Rcpp20Rcpp_precious_removeEP7SEXPRECE3fun"
 "_ZZN4Rcpp22Rcpp_precious_preserveEP7SEXPRECE3fun"
